
========================================================================

** ELF Header Information

    File Name: .\obj\Smpl_Basic01_StartKit.axf

    Machine class: ELFCLASS32 (32-bit)
    Data encoding: ELFDATA2LSB (Little endian)
    Header version: EV_CURRENT (Current version)
    Operating System ABI: none
    ABI Version: 0
    File Type: ET_EXEC (Executable) (2)
    Machine: EM_ARM (ARM)

    Image Entry point: 0x00000171
    Flags: EF_ARM_HASENTRY (0x05000002)

    ARM ELF revision: 5 (ABI version 2)

    Built with
    ARM C/C++ Compiler, 4.1 [Build 894]
    ARM Assembler, 4.1 [Build 894]
    ARM Linker, 4.1 [Build 894] 

    Header size: 52 bytes (0x34)
    Program header entry size: 32 bytes (0x20)
    Section header entry size: 40 bytes (0x28)

    Program header entries: 1
    Section header entries: 16

    Program header offset: 591244 (0x0009058c)
    Section header offset: 591276 (0x000905ac)

    Section header string table index: 15

========================================================================

** Program header #0 (PT_LOAD) [PF_X + PF_W + PF_R + PF_ARM_ENTRY]
    Size : 10204 bytes (9176 bytes in file)
    Virtual address: 0x00000000 (Alignment 8)


========================================================================

** Section #1 'ER_RO' (SHT_PROGBITS) [SHF_ALLOC + SHF_EXECINSTR]
    Size   : 9100 bytes (alignment 4)
    Address: 0x00000000

    $d.realdata
    RESET
    __Vectors
        0x00000000:    20000450    P..     DCD    536872016
        0x00000004:    00000171    q...    DCD    369
        0x00000008:    000001a3    ....    DCD    419
        0x0000000c:    00000155    U...    DCD    341
        0x00000010:    000001a7    ....    DCD    423
        0x00000014:    000001a9    ....    DCD    425
        0x00000018:    000001ab    ....    DCD    427
        0x0000001c:    00000000    ....    DCD    0
        0x00000020:    00000000    ....    DCD    0
        0x00000024:    00000000    ....    DCD    0
        0x00000028:    00000000    ....    DCD    0
        0x0000002c:    000001ad    ....    DCD    429
        0x00000030:    000001af    ....    DCD    431
        0x00000034:    00000000    ....    DCD    0
        0x00000038:    000001b1    ....    DCD    433
        0x0000003c:    000001b3    ....    DCD    435
        0x00000040:    000001b5    ....    DCD    437
        0x00000044:    000001b5    ....    DCD    437
        0x00000048:    000001b5    ....    DCD    437
        0x0000004c:    000001b5    ....    DCD    437
        0x00000050:    000001b5    ....    DCD    437
        0x00000054:    000001b5    ....    DCD    437
        0x00000058:    000001b5    ....    DCD    437
        0x0000005c:    000001b5    ....    DCD    437
        0x00000060:    000001b5    ....    DCD    437
        0x00000064:    000001b5    ....    DCD    437
        0x00000068:    000001b5    ....    DCD    437
        0x0000006c:    000001b5    ....    DCD    437
        0x00000070:    000001b5    ....    DCD    437
        0x00000074:    000001b5    ....    DCD    437
        0x00000078:    000001b5    ....    DCD    437
        0x0000007c:    000001b5    ....    DCD    437
        0x00000080:    000001b5    ....    DCD    437
        0x00000084:    000001b5    ....    DCD    437
        0x00000088:    000001b5    ....    DCD    437
        0x0000008c:    000001b5    ....    DCD    437
        0x00000090:    000001b5    ....    DCD    437
        0x00000094:    000001b5    ....    DCD    437
        0x00000098:    000001b5    ....    DCD    437
        0x0000009c:    000001b5    ....    DCD    437
        0x000000a0:    000001b5    ....    DCD    437
        0x000000a4:    000001b5    ....    DCD    437
        0x000000a8:    000001b5    ....    DCD    437
        0x000000ac:    0000134d    M...    DCD    4941
        0x000000b0:    000001b5    ....    DCD    437
        0x000000b4:    000001b5    ....    DCD    437
        0x000000b8:    000001b5    ....    DCD    437
        0x000000bc:    000001b5    ....    DCD    437
        0x000000c0:    000001b5    ....    DCD    437
        0x000000c4:    000001b5    ....    DCD    437
        0x000000c8:    000001b5    ....    DCD    437
        0x000000cc:    000001b5    ....    DCD    437
        0x000000d0:    000001b5    ....    DCD    437
        0x000000d4:    000001b5    ....    DCD    437
        0x000000d8:    000001b5    ....    DCD    437
        0x000000dc:    0000095d    ]...    DCD    2397
        0x000000e0:    000001b5    ....    DCD    437
        0x000000e4:    000001b5    ....    DCD    437
        0x000000e8:    000001b5    ....    DCD    437
        0x000000ec:    000001b5    ....    DCD    437
        0x000000f0:    000001b5    ....    DCD    437
        0x000000f4:    000001b5    ....    DCD    437
        0x000000f8:    000001b5    ....    DCD    437
        0x000000fc:    000001b5    ....    DCD    437
        0x00000100:    000001b5    ....    DCD    437
        0x00000104:    000001b5    ....    DCD    437
        0x00000108:    000001b5    ....    DCD    437
        0x0000010c:    000001b5    ....    DCD    437
        0x00000110:    000001b5    ....    DCD    437
        0x00000114:    000001b5    ....    DCD    437
        0x00000118:    000001b5    ....    DCD    437
        0x0000011c:    000001b5    ....    DCD    437
        0x00000120:    000001b5    ....    DCD    437
        0x00000124:    000001b5    ....    DCD    437
        0x00000128:    000001b5    ....    DCD    437
        0x0000012c:    000001b5    ....    DCD    437
        0x00000130:    000001b5    ....    DCD    437
        0x00000134:    000001b5    ....    DCD    437
        0x00000138:    000001b5    ....    DCD    437
        0x0000013c:    000001b5    ....    DCD    437
    $t
    .ARM.Collect$$$$00000000
    .ARM.Collect$$$$00000001
    __Vectors_End
    __main
    _main_stk
        0x00000140:    f8dfd00c    ....    LDR      sp,__lit__00000000 ; [0x150] = 0x20000450
    .ARM.Collect$$$$00000004
    _main_scatterload
        0x00000144:    f000f91a    ....    BL       __scatterload ; 0x37c
    .ARM.Collect$$$$00000008
    .ARM.Collect$$$$00000009
    __main_after_scatterload
    _main_clock
    _main_init
        0x00000148:    4800        .H      LDR      r0,[pc,#0] ; [0x14c] = 0x20bd
        0x0000014a:    4700        .G      BX       r0
    $d
        0x0000014c:    000020bd    . ..    DCD    8381
    .ARM.Collect$$$$00002712
    __lit__00000000
        0x00000150:    20000450    P..     DCD    536872016
    $t
    .emb_text
    $v0
    HardFault_Handler
        0x00000154:    2004        .       MOVS     r0,#4
        0x00000156:    4671        qF      MOV      r1,lr
        0x00000158:    4208        .B      TST      r0,r1
        0x0000015a:    d002        ..      BEQ      0x162 ; HardFault_Handler + 14
        0x0000015c:    f3ef8009    ....    MRS      r0,PSP
        0x00000160:    e001        ..      B        0x166 ; HardFault_Handler + 18
        0x00000162:    f3ef8008    ....    MRS      r0,MSP
        0x00000166:    4671        qF      MOV      r1,lr
        0x00000168:    4a00        .J      LDR      r2,[pc,#0] ; [0x16c] = 0x935
        0x0000016a:    4710        .G      BX       r2
    $d
        0x0000016c:    00000935    5...    DCD    2357
    $t
    .text
    $v0
    Reset_Handler
        0x00000170:    4811        .H      LDR      r0,[pc,#68] ; [0x1b8] = 0x40000100
        0x00000172:    f04f0159    O.Y.    MOV      r1,#0x59
        0x00000176:    6001        .`      STR      r1,[r0,#0]
        0x00000178:    f04f0116    O...    MOV      r1,#0x16
        0x0000017c:    6001        .`      STR      r1,[r0,#0]
        0x0000017e:    f04f0188    O...    MOV      r1,#0x88
        0x00000182:    6001        .`      STR      r1,[r0,#0]
        0x00000184:    4a0d        .J      LDR      r2,[pc,#52] ; [0x1bc] = 0x40000024
        0x00000186:    f64521a5    E..!    MOV      r1,#0x5aa5
        0x0000018a:    6011        .`      STR      r1,[r2,#0]
        0x0000018c:    4a0c        .J      LDR      r2,[pc,#48] ; [0x1c0] = 0x40000200
        0x0000018e:    6811        .h      LDR      r1,[r2,#0]
        0x00000190:    f4215180    !..Q    BIC      r1,r1,#0x1000
        0x00000194:    6011        .`      STR      r1,[r2,#0]
        0x00000196:    2100        .!      MOVS     r1,#0
        0x00000198:    6001        .`      STR      r1,[r0,#0]
        0x0000019a:    480a        .H      LDR      r0,[pc,#40] ; [0x1c4] = 0x1a89
        0x0000019c:    4780        .G      BLX      r0
        0x0000019e:    480a        .H      LDR      r0,[pc,#40] ; [0x1c8] = 0x141
        0x000001a0:    4700        .G      BX       r0
    NMI_Handler
        0x000001a2:    e7fe        ..      B        NMI_Handler ; 0x1a2
        0x000001a4:    e7fe        ..      B        0x1a4 ; NMI_Handler + 2
    MemManage_Handler
        0x000001a6:    e7fe        ..      B        MemManage_Handler ; 0x1a6
    BusFault_Handler
        0x000001a8:    e7fe        ..      B        BusFault_Handler ; 0x1a8
    UsageFault_Handler
        0x000001aa:    e7fe        ..      B        UsageFault_Handler ; 0x1aa
    SVC_Handler
        0x000001ac:    e7fe        ..      B        SVC_Handler ; 0x1ac
    DebugMon_Handler
        0x000001ae:    e7fe        ..      B        DebugMon_Handler ; 0x1ae
    PendSV_Handler
        0x000001b0:    e7fe        ..      B        PendSV_Handler ; 0x1b0
    SysTick_Handler
        0x000001b2:    e7fe        ..      B        SysTick_Handler ; 0x1b2
    Default_Handler
    ACMP01_IRQHandler
    ADC00_IRQHandler
    ADC01_IRQHandler
    ADC02_IRQHandler
    ADC03_IRQHandler
    BOD_IRQHandler
    BRAKE0_IRQHandler
    BRAKE1_IRQHandler
    CAN0_IRQHandler
    CLKFAIL_IRQHandler
    DAC_IRQHandler
    EINT0_IRQHandler
    EINT1_IRQHandler
    EINT2_IRQHandler
    EINT3_IRQHandler
    EINT4_IRQHandler
    EINT5_IRQHandler
    GPA_IRQHandler
    GPB_IRQHandler
    GPC_IRQHandler
    GPD_IRQHandler
    GPE_IRQHandler
    GPF_IRQHandler
    I2C0_IRQHandler
    IRC_IRQHandler
    PDMA_IRQHandler
    PWM0P0_IRQHandler
    PWM0P1_IRQHandler
    PWM1P0_IRQHandler
    PWM1P1_IRQHandler
    PWM1P2_IRQHandler
    PWRWU_IRQHandler
    RAMPE_IRQHandler
    RTC_IRQHandler
    SC0_IRQHandler
    SPI0_IRQHandler
    SPI1_IRQHandler
    SPI2_IRQHandler
    TAMPER_IRQHandler
    TK_IRQHandler
    TMR0_IRQHandler
    TMR1_IRQHandler
    TMR2_IRQHandler
    TMR3_IRQHandler
    UART0_IRQHandler
    UART1_IRQHandler
    UART2_IRQHandler
    UART3_IRQHandler
    USBD_IRQHandler
    USBH_IRQHandler
    USBOTG_IRQHandler
    WDT_IRQHandler
    WWDT_IRQHandler
        0x000001b4:    e7fe        ..      B        Default_Handler ; 0x1b4
    $d
        0x000001b6:    0000        ..      DCW    0
        0x000001b8:    40000100    ...@    DCD    1073742080
        0x000001bc:    40000024    $..@    DCD    1073741860
        0x000001c0:    40000200    ...@    DCD    1073742336
        0x000001c4:    00001a89    ....    DCD    6793
        0x000001c8:    00000141    A...    DCD    321
    $t
    .text
    __aeabi_memcpy
    __aeabi_memcpy4
    __aeabi_memcpy8
        0x000001cc:    ea400301    @...    ORR      r3,r0,r1
        0x000001d0:    079b        ..      LSLS     r3,r3,#30
        0x000001d2:    d003        ..      BEQ      0x1dc ; __aeabi_memcpy + 16
        0x000001d4:    e009        ..      B        0x1ea ; __aeabi_memcpy + 30
        0x000001d6:    c908        ..      LDM      r1!,{r3}
        0x000001d8:    1f12        ..      SUBS     r2,r2,#4
        0x000001da:    c008        ..      STM      r0!,{r3}
        0x000001dc:    2a04        .*      CMP      r2,#4
        0x000001de:    d2fa        ..      BCS      0x1d6 ; __aeabi_memcpy + 10
        0x000001e0:    e003        ..      B        0x1ea ; __aeabi_memcpy + 30
        0x000001e2:    f8113b01    ...;    LDRB     r3,[r1],#1
        0x000001e6:    f8003b01    ...;    STRB     r3,[r0],#1
        0x000001ea:    1e52        R.      SUBS     r2,r2,#1
        0x000001ec:    d2f9        ..      BCS      0x1e2 ; __aeabi_memcpy + 22
        0x000001ee:    4770        pG      BX       lr
    .text
    __aeabi_ui2d
        0x000001f0:    b50e        ..      PUSH     {r1-r3,lr}
        0x000001f2:    f2404133    @.3A    MOV      r1,#0x433
        0x000001f6:    9102        ..      STR      r1,[sp,#8]
        0x000001f8:    2100        .!      MOVS     r1,#0
        0x000001fa:    e9cd1100    ....    STRD     r1,r1,[sp,#0]
        0x000001fe:    460a        .F      MOV      r2,r1
        0x00000200:    460b        .F      MOV      r3,r1
        0x00000202:    f000f869    ..i.    BL       _double_epilogue ; 0x2d8
        0x00000206:    b003        ..      ADD      sp,sp,#0xc
        0x00000208:    bd00        ..      POP      {pc}
        0x0000020a:    0000        ..      MOVS     r0,r0
    .text
    __aeabi_cdcmpeq
    __aeabi_cdcmple
        0x0000020c:    b530        0.      PUSH     {r4,r5,lr}
        0x0000020e:    2900        .)      CMP      r1,#0
        0x00000210:    db04        ..      BLT      0x21c ; __aeabi_cdcmpeq + 16
        0x00000212:    f04f4400    O..D    MOV      r4,#0x80000000
        0x00000216:    4240        @B      RSBS     r0,r0,#0
        0x00000218:    eb640101    d...    SBC      r1,r4,r1
        0x0000021c:    2b00        .+      CMP      r3,#0
        0x0000021e:    db04        ..      BLT      0x22a ; __aeabi_cdcmpeq + 30
        0x00000220:    f04f4400    O..D    MOV      r4,#0x80000000
        0x00000224:    4252        RB      RSBS     r2,r2,#0
        0x00000226:    eb640303    d...    SBC      r3,r4,r3
        0x0000022a:    428b        .B      CMP      r3,r1
        0x0000022c:    bf08        ..      IT       EQ
        0x0000022e:    4282        .B      CMPEQ    r2,r0
        0x00000230:    bd30        0.      POP      {r4,r5,pc}
    $d
        0x00000232:    0000        ..      DCW    0
    $t
    .text
    __aeabi_cdrcmple
        0x00000234:    b530        0.      PUSH     {r4,r5,lr}
        0x00000236:    2900        .)      CMP      r1,#0
        0x00000238:    db04        ..      BLT      0x244 ; __aeabi_cdrcmple + 16
        0x0000023a:    f04f4400    O..D    MOV      r4,#0x80000000
        0x0000023e:    4240        @B      RSBS     r0,r0,#0
        0x00000240:    eb640101    d...    SBC      r1,r4,r1
        0x00000244:    2b00        .+      CMP      r3,#0
        0x00000246:    db04        ..      BLT      0x252 ; __aeabi_cdrcmple + 30
        0x00000248:    f04f4400    O..D    MOV      r4,#0x80000000
        0x0000024c:    4252        RB      RSBS     r2,r2,#0
        0x0000024e:    eb640303    d...    SBC      r3,r4,r3
        0x00000252:    4299        .B      CMP      r1,r3
        0x00000254:    bf08        ..      IT       EQ
        0x00000256:    4290        .B      CMPEQ    r0,r2
        0x00000258:    bd30        0.      POP      {r4,r5,pc}
    $d
        0x0000025a:    0000        ..      DCW    0
    $t
    .text
    __aeabi_uldivmod
        0x0000025c:    e92d5ff0    -.._    PUSH     {r4-r12,lr}
        0x00000260:    4605        .F      MOV      r5,r0
        0x00000262:    2000        .       MOVS     r0,#0
        0x00000264:    4692        .F      MOV      r10,r2
        0x00000266:    469b        .F      MOV      r11,r3
        0x00000268:    4688        .F      MOV      r8,r1
        0x0000026a:    4606        .F      MOV      r6,r0
        0x0000026c:    4681        .F      MOV      r9,r0
        0x0000026e:    2440        @$      MOVS     r4,#0x40
        0x00000270:    e01b        ..      B        0x2aa ; __aeabi_uldivmod + 78
        0x00000272:    4628        (F      MOV      r0,r5
        0x00000274:    4641        AF      MOV      r1,r8
        0x00000276:    4647        GF      MOV      r7,r8
        0x00000278:    4622        "F      MOV      r2,r4
        0x0000027a:    f000f8a0    ....    BL       __aeabi_llsr ; 0x3be
        0x0000027e:    4652        RF      MOV      r2,r10
        0x00000280:    465b        [F      MOV      r3,r11
        0x00000282:    1a80        ..      SUBS     r0,r0,r2
        0x00000284:    4199        .A      SBCS     r1,r1,r3
        0x00000286:    d310        ..      BCC      0x2aa ; __aeabi_uldivmod + 78
        0x00000288:    4610        .F      MOV      r0,r2
        0x0000028a:    4619        .F      MOV      r1,r3
        0x0000028c:    4622        "F      MOV      r2,r4
        0x0000028e:    f000f887    ....    BL       __aeabi_llsl ; 0x3a0
        0x00000292:    1a2d        -.      SUBS     r5,r5,r0
        0x00000294:    eb670801    g...    SBC      r8,r7,r1
        0x00000298:    464f        OF      MOV      r7,r9
        0x0000029a:    4622        "F      MOV      r2,r4
        0x0000029c:    2001        .       MOVS     r0,#1
        0x0000029e:    2100        .!      MOVS     r1,#0
        0x000002a0:    f000f87e    ..~.    BL       __aeabi_llsl ; 0x3a0
        0x000002a4:    eb170900    ....    ADDS     r9,r7,r0
        0x000002a8:    414e        NA      ADCS     r6,r6,r1
        0x000002aa:    1e20         .      SUBS     r0,r4,#0
        0x000002ac:    f1a40401    ....    SUB      r4,r4,#1
        0x000002b0:    dcdf        ..      BGT      0x272 ; __aeabi_uldivmod + 22
        0x000002b2:    4648        HF      MOV      r0,r9
        0x000002b4:    4631        1F      MOV      r1,r6
        0x000002b6:    462a        *F      MOV      r2,r5
        0x000002b8:    4643        CF      MOV      r3,r8
        0x000002ba:    e8bd9ff0    ....    POP      {r4-r12,pc}
    .text
    .text
    __I$use$fp
    _double_round
        0x000002be:    b510        ..      PUSH     {r4,lr}
        0x000002c0:    2b00        .+      CMP      r3,#0
        0x000002c2:    da08        ..      BGE      0x2d6 ; __I$use$fp + 24
        0x000002c4:    1c40        @.      ADDS     r0,r0,#1
        0x000002c6:    f1410100    A...    ADC      r1,r1,#0
        0x000002ca:    1892        ..      ADDS     r2,r2,r2
        0x000002cc:    415b        [A      ADCS     r3,r3,r3
        0x000002ce:    431a        .C      ORRS     r2,r2,r3
        0x000002d0:    d101        ..      BNE      0x2d6 ; __I$use$fp + 24
        0x000002d2:    f0200001     ...    BIC      r0,r0,#1
        0x000002d6:    bd10        ..      POP      {r4,pc}
    _double_epilogue
        0x000002d8:    e92d4df0    -..M    PUSH     {r4-r8,r10,r11,lr}
        0x000002dc:    4692        .F      MOV      r10,r2
        0x000002de:    469b        .F      MOV      r11,r3
        0x000002e0:    b111        ..      CBZ      r1,0x2e8 ; _double_epilogue + 16
        0x000002e2:    fab1f281    ....    CLZ      r2,r1
        0x000002e6:    e002        ..      B        0x2ee ; _double_epilogue + 22
        0x000002e8:    fab0f280    ....    CLZ      r2,r0
        0x000002ec:    3220         2      ADDS     r2,r2,#0x20
        0x000002ee:    4690        .F      MOV      r8,r2
        0x000002f0:    f000f856    ..V.    BL       __aeabi_llsl ; 0x3a0
        0x000002f4:    4606        .F      MOV      r6,r0
        0x000002f6:    460f        .F      MOV      r7,r1
        0x000002f8:    ea40000a    @...    ORR      r0,r0,r10
        0x000002fc:    ea41010b    A...    ORR      r1,r1,r11
        0x00000300:    4652        RF      MOV      r2,r10
        0x00000302:    465b        [F      MOV      r3,r11
        0x00000304:    4308        .C      ORRS     r0,r0,r1
        0x00000306:    d103        ..      BNE      0x310 ; _double_epilogue + 56
        0x00000308:    4630        0F      MOV      r0,r6
        0x0000030a:    4639        9F      MOV      r1,r7
        0x0000030c:    e8bd8df0    ....    POP      {r4-r8,r10,r11,pc}
        0x00000310:    4619        .F      MOV      r1,r3
        0x00000312:    ea520001    R...    ORRS     r0,r2,r1
        0x00000316:    d015        ..      BEQ      0x344 ; _double_epilogue + 108
        0x00000318:    f1c80240    ..@.    RSB      r2,r8,#0x40
        0x0000031c:    4650        PF      MOV      r0,r10
        0x0000031e:    f000f84e    ..N.    BL       __aeabi_llsr ; 0x3be
        0x00000322:    4604        .F      MOV      r4,r0
        0x00000324:    460d        .F      MOV      r5,r1
        0x00000326:    4650        PF      MOV      r0,r10
        0x00000328:    4659        YF      MOV      r1,r11
        0x0000032a:    4642        BF      MOV      r2,r8
        0x0000032c:    f000f838    ..8.    BL       __aeabi_llsl ; 0x3a0
        0x00000330:    4308        .C      ORRS     r0,r0,r1
        0x00000332:    d001        ..      BEQ      0x338 ; _double_epilogue + 96
        0x00000334:    2001        .       MOVS     r0,#1
        0x00000336:    e000        ..      B        0x33a ; _double_epilogue + 98
        0x00000338:    2000        .       MOVS     r0,#0
        0x0000033a:    4304        .C      ORRS     r4,r4,r0
        0x0000033c:    ea4575e0    E..u    ORR      r5,r5,r0,ASR #31
        0x00000340:    4326        &C      ORRS     r6,r6,r4
        0x00000342:    432f        /C      ORRS     r7,r7,r5
        0x00000344:    980a        ..      LDR      r0,[sp,#0x28]
        0x00000346:    ea4f25d6    O..%    LSR      r5,r6,#11
        0x0000034a:    eba00008    ....    SUB      r0,r0,r8
        0x0000034e:    300a        .0      ADDS     r0,r0,#0xa
        0x00000350:    ea4f5346    O.FS    LSL      r3,r6,#21
        0x00000354:    f04f0200    O...    MOV      r2,#0
        0x00000358:    ea455547    E.GU    ORR      r5,r5,r7,LSL #21
        0x0000035c:    ea4f24d7    O..$    LSR      r4,r7,#11
        0x00000360:    d502        ..      BPL      0x368 ; _double_epilogue + 144
        0x00000362:    2000        .       MOVS     r0,#0
        0x00000364:    4601        .F      MOV      r1,r0
        0x00000366:    e7d1        ..      B        0x30c ; _double_epilogue + 52
        0x00000368:    0501        ..      LSLS     r1,r0,#20
        0x0000036a:    1950        P.      ADDS     r0,r2,r5
        0x0000036c:    4161        aA      ADCS     r1,r1,r4
        0x0000036e:    e9dd4508    ...E    LDRD     r4,r5,[sp,#0x20]
        0x00000372:    1900        ..      ADDS     r0,r0,r4
        0x00000374:    4169        iA      ADCS     r1,r1,r5
        0x00000376:    e8bd4df0    ...M    POP      {r4-r8,r10,r11,lr}
        0x0000037a:    e7a0        ..      B        __I$use$fp ; 0x2be
    .text
    __scatterload
    __scatterload_rt2
        0x0000037c:    4c06        .L      LDR      r4,[pc,#24] ; [0x398] = 0x236c
        0x0000037e:    4d07        .M      LDR      r5,[pc,#28] ; [0x39c] = 0x238c
        0x00000380:    e006        ..      B        0x390 ; __scatterload + 20
        0x00000382:    68e0        .h      LDR      r0,[r4,#0xc]
        0x00000384:    f0400301    @...    ORR      r3,r0,#1
        0x00000388:    e8940007    ....    LDM      r4,{r0-r2}
        0x0000038c:    4798        .G      BLX      r3
        0x0000038e:    3410        .4      ADDS     r4,r4,#0x10
        0x00000390:    42ac        .B      CMP      r4,r5
        0x00000392:    d3f6        ..      BCC      0x382 ; __scatterload + 6
        0x00000394:    f7fffed8    ....    BL       __main_after_scatterload ; 0x148
    $d
        0x00000398:    0000236c    l#..    DCD    9068
        0x0000039c:    0000238c    .#..    DCD    9100
    $t
    .text
    __aeabi_llsl
    _ll_shift_l
        0x000003a0:    2a20         *      CMP      r2,#0x20
        0x000003a2:    db04        ..      BLT      0x3ae ; __aeabi_llsl + 14
        0x000003a4:    3a20         :      SUBS     r2,r2,#0x20
        0x000003a6:    fa00f102    ....    LSL      r1,r0,r2
        0x000003aa:    2000        .       MOVS     r0,#0
        0x000003ac:    4770        pG      BX       lr
        0x000003ae:    4091        .@      LSLS     r1,r1,r2
        0x000003b0:    f1c20320    .. .    RSB      r3,r2,#0x20
        0x000003b4:    fa20f303     ...    LSR      r3,r0,r3
        0x000003b8:    4319        .C      ORRS     r1,r1,r3
        0x000003ba:    4090        .@      LSLS     r0,r0,r2
        0x000003bc:    4770        pG      BX       lr
    .text
    __aeabi_llsr
    _ll_ushift_r
        0x000003be:    2a20         *      CMP      r2,#0x20
        0x000003c0:    db04        ..      BLT      0x3cc ; __aeabi_llsr + 14
        0x000003c2:    3a20         :      SUBS     r2,r2,#0x20
        0x000003c4:    fa21f002    !...    LSR      r0,r1,r2
        0x000003c8:    2100        .!      MOVS     r1,#0
        0x000003ca:    4770        pG      BX       lr
        0x000003cc:    fa21f302    !...    LSR      r3,r1,r2
        0x000003d0:    40d0        .@      LSRS     r0,r0,r2
        0x000003d2:    f1c20220    .. .    RSB      r2,r2,#0x20
        0x000003d6:    4091        .@      LSLS     r1,r1,r2
        0x000003d8:    4308        .C      ORRS     r0,r0,r1
        0x000003da:    4619        .F      MOV      r1,r3
        0x000003dc:    4770        pG      BX       lr
        0x000003de:    0000        ..      MOVS     r0,r0
    i.CLK_DisablePLL
    CLK_DisablePLL
        0x000003e0:    4802        .H      LDR      r0,[pc,#8] ; [0x3ec] = 0x40000240
        0x000003e2:    6801        .h      LDR      r1,[r0,#0]
        0x000003e4:    f4413180    A..1    ORR      r1,r1,#0x10000
        0x000003e8:    6001        .`      STR      r1,[r0,#0]
        0x000003ea:    4770        pG      BX       lr
    $d
        0x000003ec:    40000240    @..@    DCD    1073742400
    $t
    i.CLK_EnableModuleClock
    CLK_EnableModuleClock
        0x000003f0:    0f82        ..      LSRS     r2,r0,#30
        0x000003f2:    f04f4180    O..A    MOV      r1,#0x40000000
        0x000003f6:    eb010182    ....    ADD      r1,r1,r2,LSL #2
        0x000003fa:    f8d12204    ..."    LDR      r2,[r1,#0x204]
        0x000003fe:    f000031f    ....    AND      r3,r0,#0x1f
        0x00000402:    2001        .       MOVS     r0,#1
        0x00000404:    4098        .@      LSLS     r0,r0,r3
        0x00000406:    4302        .C      ORRS     r2,r2,r0
        0x00000408:    f8c12204    ..."    STR      r2,[r1,#0x204]
        0x0000040c:    4770        pG      BX       lr
        0x0000040e:    0000        ..      MOVS     r0,r0
    i.CLK_EnablePLL
    CLK_EnablePLL
        0x00000410:    e92d4ffc    -..O    PUSH     {r2-r11,lr}
        0x00000414:    4604        .F      MOV      r4,r0
        0x00000416:    460d        .F      MOV      r5,r1
        0x00000418:    f7ffffe2    ....    BL       CLK_DisablePLL ; 0x3e0
        0x0000041c:    4856        VH      LDR      r0,[pc,#344] ; [0x578] = 0x40000200
        0x0000041e:    4f54        TO      LDR      r7,[pc,#336] ; [0x570] = 0xb71b00
        0x00000420:    f8df8150    ..P.    LDR      r8,[pc,#336] ; [0x574] = 0x1518000
        0x00000424:    6801        .h      LDR      r1,[r0,#0]
        0x00000426:    b194        ..      CBZ      r4,0x44e ; CLK_EnablePLL + 62
        0x00000428:    f0410104    A...    ORR      r1,r1,#4
        0x0000042c:    6001        .`      STR      r1,[r0,#0]
        0x0000042e:    2010        .       MOVS     r0,#0x10
        0x00000430:    f000fa04    ....    BL       CLK_WaitClockReady ; 0x83c
        0x00000434:    f44f2e00    O...    MOV      lr,#0x80000
        0x00000438:    2604        .&      MOVS     r6,#4
        0x0000043a:    f8cd8004    ....    STR      r8,[sp,#4]
        0x0000043e:    484f        OH      LDR      r0,[pc,#316] ; [0x57c] = 0xf1194d7f
        0x00000440:    494f        OI      LDR      r1,[pc,#316] ; [0x580] = 0xee6b27f
        0x00000442:    4428        (D      ADD      r0,r0,r5
        0x00000444:    4288        .B      CMP      r0,r1
        0x00000446:    d80d        ..      BHI      0x464 ; CLK_EnablePLL + 84
        0x00000448:    2000        .       MOVS     r0,#0
        0x0000044a:    9000        ..      STR      r0,[sp,#0]
        0x0000044c:    e01b        ..      B        0x486 ; CLK_EnablePLL + 118
        0x0000044e:    f0410101    A...    ORR      r1,r1,#1
        0x00000452:    6001        .`      STR      r1,[r0,#0]
        0x00000454:    2001        .       MOVS     r0,#1
        0x00000456:    f000f9f1    ....    BL       CLK_WaitClockReady ; 0x83c
        0x0000045a:    f04f0e00    O...    MOV      lr,#0
        0x0000045e:    2602        .&      MOVS     r6,#2
        0x00000460:    9701        ..      STR      r7,[sp,#4]
        0x00000462:    e7ec        ..      B        0x43e ; CLK_EnablePLL + 46
        0x00000464:    4847        GH      LDR      r0,[pc,#284] ; [0x584] = 0xf88ca6bf
        0x00000466:    4948        HI      LDR      r1,[pc,#288] ; [0x588] = 0x773593f
        0x00000468:    4428        (D      ADD      r0,r0,r5
        0x0000046a:    4288        .B      CMP      r0,r1
        0x0000046c:    d803        ..      BHI      0x476 ; CLK_EnablePLL + 102
        0x0000046e:    2001        .       MOVS     r0,#1
        0x00000470:    006d        m.      LSLS     r5,r5,#1
        0x00000472:    9000        ..      STR      r0,[sp,#0]
        0x00000474:    e007        ..      B        0x486 ; CLK_EnablePLL + 118
        0x00000476:    4845        EH      LDR      r0,[pc,#276] ; [0x58c] = 0xfd050f80
        0x00000478:    4945        EI      LDR      r1,[pc,#276] ; [0x590] = 0x47868c0
        0x0000047a:    4428        (D      ADD      r0,r0,r5
        0x0000047c:    4288        .B      CMP      r0,r1
        0x0000047e:    d848        H.      BHI      0x512 ; CLK_EnablePLL + 258
        0x00000480:    2003        .       MOVS     r0,#3
        0x00000482:    00ad        ..      LSLS     r5,r5,#2
        0x00000484:    9000        ..      STR      r0,[sp,#0]
        0x00000486:    f04f0a00    O...    MOV      r10,#0
        0x0000048a:    f04f32ff    O..2    MOV      r2,#0xffffffff
        0x0000048e:    46d0        .F      MOV      r8,r10
        0x00000490:    e022        ".      B        0x4d8 ; CLK_EnablePLL + 200
        0x00000492:    9801        ..      LDR      r0,[sp,#4]
        0x00000494:    4c40        @L      LDR      r4,[pc,#256] ; [0x598] = 0xdbb9ff
        0x00000496:    fbb0f3f6    ....    UDIV     r3,r0,r6
        0x0000049a:    483e        >H      LDR      r0,[pc,#248] ; [0x594] = 0xffe795ff
        0x0000049c:    1819        ..      ADDS     r1,r3,r0
        0x0000049e:    42a1        .B      CMP      r1,r4
        0x000004a0:    d219        ..      BCS      0x4d6 ; CLK_EnablePLL + 198
        0x000004a2:    f8df90f8    ....    LDR      r9,[pc,#248] ; [0x59c] = 0xf4143e00
        0x000004a6:    4f3e        >O      LDR      r7,[pc,#248] ; [0x5a0] = 0x11e1a300
        0x000004a8:    2402        .$      MOVS     r4,#2
        0x000004aa:    f2402b01    @..+    MOV      r11,#0x201
        0x000004ae:    fb03f104    ....    MUL      r1,r3,r4
        0x000004b2:    eb010c09    ....    ADD      r12,r1,r9
        0x000004b6:    45bc        .E      CMP      r12,r7
        0x000004b8:    d80a        ..      BHI      0x4d0 ; CLK_EnablePLL + 192
        0x000004ba:    42a9        .B      CMP      r1,r5
        0x000004bc:    d901        ..      BLS      0x4c2 ; CLK_EnablePLL + 178
        0x000004be:    1b49        I.      SUBS     r1,r1,r5
        0x000004c0:    e000        ..      B        0x4c4 ; CLK_EnablePLL + 180
        0x000004c2:    1a69        i.      SUBS     r1,r5,r1
        0x000004c4:    4291        .B      CMP      r1,r2
        0x000004c6:    d203        ..      BCS      0x4d0 ; CLK_EnablePLL + 192
        0x000004c8:    000a        ..      MOVS     r2,r1
        0x000004ca:    46b2        .F      MOV      r10,r6
        0x000004cc:    46a0        .F      MOV      r8,r4
        0x000004ce:    d002        ..      BEQ      0x4d6 ; CLK_EnablePLL + 198
        0x000004d0:    1c64        d.      ADDS     r4,r4,#1
        0x000004d2:    455c        \E      CMP      r4,r11
        0x000004d4:    d9eb        ..      BLS      0x4ae ; CLK_EnablePLL + 158
        0x000004d6:    1c76        v.      ADDS     r6,r6,#1
        0x000004d8:    2e21        !.      CMP      r6,#0x21
        0x000004da:    d9da        ..      BLS      0x492 ; CLK_EnablePLL + 130
        0x000004dc:    9800        ..      LDR      r0,[sp,#0]
        0x000004de:    4931        1I      LDR      r1,[pc,#196] ; [0x5a4] = 0xfffffc00
        0x000004e0:    ea4e3080    N..0    ORR      r0,lr,r0,LSL #14
        0x000004e4:    eb01214a    ..J!    ADD      r1,r1,r10,LSL #9
        0x000004e8:    4308        .C      ORRS     r0,r0,r1
        0x000004ea:    f1a80102    ....    SUB      r1,r8,#2
        0x000004ee:    4308        .C      ORRS     r0,r0,r1
        0x000004f0:    492d        -I      LDR      r1,[pc,#180] ; [0x5a8] = 0x40000240
        0x000004f2:    6008        .`      STR      r0,[r1,#0]
        0x000004f4:    f04f0004    O...    MOV      r0,#4
        0x000004f8:    f000f9a0    ....    BL       CLK_WaitClockReady ; 0x83c
        0x000004fc:    9800        ..      LDR      r0,[sp,#0]
        0x000004fe:    9901        ..      LDR      r1,[sp,#4]
        0x00000500:    1c40        @.      ADDS     r0,r0,#1
        0x00000502:    fb00f00a    ....    MUL      r0,r0,r10
        0x00000506:    fbb1f0f0    ....    UDIV     r0,r1,r0
        0x0000050a:    fb00f008    ....    MUL      r0,r0,r8
        0x0000050e:    e8bd8ffc    ....    POP      {r2-r11,pc}
        0x00000512:    b184        ..      CBZ      r4,0x536 ; CLK_EnablePLL + 294
        0x00000514:    4925        %I      LDR      r1,[pc,#148] ; [0x5ac] = 0x8c432
        0x00000516:    4824        $H      LDR      r0,[pc,#144] ; [0x5a8] = 0x40000240
        0x00000518:    6001        .`      STR      r1,[r0,#0]
        0x0000051a:    f04f0004    O...    MOV      r0,#4
        0x0000051e:    f000f98d    ....    BL       CLK_WaitClockReady ; 0x83c
        0x00000522:    a023        #.      ADR      r0,{pc}+0x8e ; 0x5b0
        0x00000524:    6800        .h      LDR      r0,[r0,#0]
        0x00000526:    9000        ..      STR      r0,[sp,#0]
        0x00000528:    481f        .H      LDR      r0,[pc,#124] ; [0x5a8] = 0x40000240
        0x0000052a:    6801        .h      LDR      r1,[r0,#0]
        0x0000052c:    f4112fa0    .../    TST      r1,#0x50000
        0x00000530:    d004        ..      BEQ      0x53c ; CLK_EnablePLL + 300
        0x00000532:    2000        .       MOVS     r0,#0
        0x00000534:    e7eb        ..      B        0x50e ; CLK_EnablePLL + 254
        0x00000536:    f24c012e    L...    MOV      r1,#0xc02e
        0x0000053a:    e7ec        ..      B        0x516 ; CLK_EnablePLL + 262
        0x0000053c:    0308        ..      LSLS     r0,r1,#12
        0x0000053e:    d501        ..      BPL      0x544 ; CLK_EnablePLL + 308
        0x00000540:    4640        @F      MOV      r0,r8
        0x00000542:    e000        ..      B        0x546 ; CLK_EnablePLL + 310
        0x00000544:    4638        8F      MOV      r0,r7
        0x00000546:    038a        ..      LSLS     r2,r1,#14
        0x00000548:    d4e1        ..      BMI      0x50e ; CLK_EnablePLL + 254
        0x0000054a:    f3c13381    ...3    UBFX     r3,r1,#14,#2
        0x0000054e:    0880        ..      LSRS     r0,r0,#2
        0x00000550:    f81d2003    ...     LDRB     r2,[sp,r3]
        0x00000554:    f3c10308    ....    UBFX     r3,r1,#0,#9
        0x00000558:    1c9b        ..      ADDS     r3,r3,#2
        0x0000055a:    f3c12144    ..D!    UBFX     r1,r1,#9,#5
        0x0000055e:    1c89        ..      ADDS     r1,r1,#2
        0x00000560:    4358        XC      MULS     r0,r3,r0
        0x00000562:    fb11f102    ....    SMULBB   r1,r1,r2
        0x00000566:    fbb0f0f1    ....    UDIV     r0,r0,r1
        0x0000056a:    0080        ..      LSLS     r0,r0,#2
        0x0000056c:    e7cf        ..      B        0x50e ; CLK_EnablePLL + 254
    $d
        0x0000056e:    0000        ..      DCW    0
        0x00000570:    00b71b00    ....    DCD    12000000
        0x00000574:    01518000    ..Q.    DCD    22118400
        0x00000578:    40000200    ...@    DCD    1073742336
        0x0000057c:    f1194d7f    .M..    DCD    4044967295
        0x00000580:    0ee6b27f    ....    DCD    249999999
        0x00000584:    f88ca6bf    ....    DCD    4169967295
        0x00000588:    0773593f    ?Ys.    DCD    124999999
        0x0000058c:    fd050f80    ....    DCD    4244967296
        0x00000590:    047868c0    .hx.    DCD    75000000
        0x00000594:    ffe795ff    ....    DCD    4293367295
        0x00000598:    00dbb9ff    ....    DCD    14399999
        0x0000059c:    f4143e00    .>..    DCD    4094967296
        0x000005a0:    11e1a300    ....    DCD    300000000
        0x000005a4:    fffffc00    ....    DCD    4294966272
        0x000005a8:    40000240    @..@    DCD    1073742400
        0x000005ac:    0008c432    2...    DCD    574514
        0x000005b0:    04020201    ....    DCD    67240449
    $t
    i.CLK_EnableXtalRC
    CLK_EnableXtalRC
        0x000005b4:    4902        .I      LDR      r1,[pc,#8] ; [0x5c0] = 0x40000200
        0x000005b6:    680a        .h      LDR      r2,[r1,#0]
        0x000005b8:    ea420200    B...    ORR      r2,r2,r0
        0x000005bc:    600a        .`      STR      r2,[r1,#0]
        0x000005be:    4770        pG      BX       lr
    $d
        0x000005c0:    40000200    ...@    DCD    1073742336
    $t
    i.CLK_GetHCLKFreq
    CLK_GetHCLKFreq
        0x000005c4:    b510        ..      PUSH     {r4,lr}
        0x000005c6:    f001fa15    ....    BL       SystemCoreClockUpdate ; 0x19f4
        0x000005ca:    4801        .H      LDR      r0,[pc,#4] ; [0x5d0] = 0x20000000
        0x000005cc:    6800        .h      LDR      r0,[r0,#0]
        0x000005ce:    bd10        ..      POP      {r4,pc}
    $d
        0x000005d0:    20000000    ...     DCD    536870912
    $t
    i.CLK_GetPLLClockFreq
    CLK_GetPLLClockFreq
        0x000005d4:    b508        ..      PUSH     {r3,lr}
        0x000005d6:    a011        ..      ADR      r0,{pc}+0x46 ; 0x61c
        0x000005d8:    6800        .h      LDR      r0,[r0,#0]
        0x000005da:    9000        ..      STR      r0,[sp,#0]
        0x000005dc:    4810        .H      LDR      r0,[pc,#64] ; [0x620] = 0x40000240
        0x000005de:    6801        .h      LDR      r1,[r0,#0]
        0x000005e0:    f4112fa0    .../    TST      r1,#0x50000
        0x000005e4:    d001        ..      BEQ      0x5ea ; CLK_GetPLLClockFreq + 22
        0x000005e6:    2000        .       MOVS     r0,#0
        0x000005e8:    bd08        ..      POP      {r3,pc}
        0x000005ea:    0308        ..      LSLS     r0,r1,#12
        0x000005ec:    d501        ..      BPL      0x5f2 ; CLK_GetPLLClockFreq + 30
        0x000005ee:    480d        .H      LDR      r0,[pc,#52] ; [0x624] = 0x1518000
        0x000005f0:    e000        ..      B        0x5f4 ; CLK_GetPLLClockFreq + 32
        0x000005f2:    480d        .H      LDR      r0,[pc,#52] ; [0x628] = 0xb71b00
        0x000005f4:    038a        ..      LSLS     r2,r1,#14
        0x000005f6:    d4f7        ..      BMI      0x5e8 ; CLK_GetPLLClockFreq + 20
        0x000005f8:    f3c13381    ...3    UBFX     r3,r1,#14,#2
        0x000005fc:    f3c10208    ....    UBFX     r2,r1,#0,#9
        0x00000600:    1c92        ..      ADDS     r2,r2,#2
        0x00000602:    f3c12144    ..D!    UBFX     r1,r1,#9,#5
        0x00000606:    f81d3003    ...0    LDRB     r3,[sp,r3]
        0x0000060a:    1c89        ..      ADDS     r1,r1,#2
        0x0000060c:    0880        ..      LSRS     r0,r0,#2
        0x0000060e:    4350        PC      MULS     r0,r2,r0
        0x00000610:    fb11f103    ....    SMULBB   r1,r1,r3
        0x00000614:    fbb0f0f1    ....    UDIV     r0,r0,r1
        0x00000618:    0080        ..      LSLS     r0,r0,#2
        0x0000061a:    bd08        ..      POP      {r3,pc}
    $d
        0x0000061c:    04020201    ....    DCD    67240449
        0x00000620:    40000240    @..@    DCD    1073742400
        0x00000624:    01518000    ..Q.    DCD    22118400
        0x00000628:    00b71b00    ....    DCD    12000000
    $t
    i.CLK_GetPLLClockFreq
    CLK_GetPLLClockFreq
        0x0000062c:    b508        ..      PUSH     {r3,lr}
        0x0000062e:    a011        ..      ADR      r0,{pc}+0x46 ; 0x674
        0x00000630:    6800        .h      LDR      r0,[r0,#0]
        0x00000632:    9000        ..      STR      r0,[sp,#0]
        0x00000634:    4810        .H      LDR      r0,[pc,#64] ; [0x678] = 0x40000240
        0x00000636:    6801        .h      LDR      r1,[r0,#0]
        0x00000638:    f4112fa0    .../    TST      r1,#0x50000
        0x0000063c:    d001        ..      BEQ      0x642 ; CLK_GetPLLClockFreq + 22
        0x0000063e:    2000        .       MOVS     r0,#0
        0x00000640:    bd08        ..      POP      {r3,pc}
        0x00000642:    0308        ..      LSLS     r0,r1,#12
        0x00000644:    d501        ..      BPL      0x64a ; CLK_GetPLLClockFreq + 30
        0x00000646:    480d        .H      LDR      r0,[pc,#52] ; [0x67c] = 0x1518000
        0x00000648:    e000        ..      B        0x64c ; CLK_GetPLLClockFreq + 32
        0x0000064a:    480d        .H      LDR      r0,[pc,#52] ; [0x680] = 0xb71b00
        0x0000064c:    038a        ..      LSLS     r2,r1,#14
        0x0000064e:    d4f7        ..      BMI      0x640 ; CLK_GetPLLClockFreq + 20
        0x00000650:    f3c13381    ...3    UBFX     r3,r1,#14,#2
        0x00000654:    f3c10208    ....    UBFX     r2,r1,#0,#9
        0x00000658:    1c92        ..      ADDS     r2,r2,#2
        0x0000065a:    f3c12144    ..D!    UBFX     r1,r1,#9,#5
        0x0000065e:    f81d3003    ...0    LDRB     r3,[sp,r3]
        0x00000662:    1c89        ..      ADDS     r1,r1,#2
        0x00000664:    0880        ..      LSRS     r0,r0,#2
        0x00000666:    4350        PC      MULS     r0,r2,r0
        0x00000668:    fb11f103    ....    SMULBB   r1,r1,r3
        0x0000066c:    fbb0f0f1    ....    UDIV     r0,r0,r1
        0x00000670:    0080        ..      LSLS     r0,r0,#2
        0x00000672:    bd08        ..      POP      {r3,pc}
    $d
        0x00000674:    04020201    ....    DCD    67240449
        0x00000678:    40000240    @..@    DCD    1073742400
        0x0000067c:    01518000    ..Q.    DCD    22118400
        0x00000680:    00b71b00    ....    DCD    12000000
    $t
    i.CLK_GetPLLClockFreq
    CLK_GetPLLClockFreq
        0x00000684:    b508        ..      PUSH     {r3,lr}
        0x00000686:    a011        ..      ADR      r0,{pc}+0x46 ; 0x6cc
        0x00000688:    6800        .h      LDR      r0,[r0,#0]
        0x0000068a:    9000        ..      STR      r0,[sp,#0]
        0x0000068c:    4810        .H      LDR      r0,[pc,#64] ; [0x6d0] = 0x40000240
        0x0000068e:    6801        .h      LDR      r1,[r0,#0]
        0x00000690:    f4112fa0    .../    TST      r1,#0x50000
        0x00000694:    d001        ..      BEQ      0x69a ; CLK_GetPLLClockFreq + 22
        0x00000696:    2000        .       MOVS     r0,#0
        0x00000698:    bd08        ..      POP      {r3,pc}
        0x0000069a:    0308        ..      LSLS     r0,r1,#12
        0x0000069c:    d501        ..      BPL      0x6a2 ; CLK_GetPLLClockFreq + 30
        0x0000069e:    480d        .H      LDR      r0,[pc,#52] ; [0x6d4] = 0x1518000
        0x000006a0:    e000        ..      B        0x6a4 ; CLK_GetPLLClockFreq + 32
        0x000006a2:    480d        .H      LDR      r0,[pc,#52] ; [0x6d8] = 0xb71b00
        0x000006a4:    038a        ..      LSLS     r2,r1,#14
        0x000006a6:    d4f7        ..      BMI      0x698 ; CLK_GetPLLClockFreq + 20
        0x000006a8:    f3c13381    ...3    UBFX     r3,r1,#14,#2
        0x000006ac:    f3c10208    ....    UBFX     r2,r1,#0,#9
        0x000006b0:    1c92        ..      ADDS     r2,r2,#2
        0x000006b2:    f3c12144    ..D!    UBFX     r1,r1,#9,#5
        0x000006b6:    f81d3003    ...0    LDRB     r3,[sp,r3]
        0x000006ba:    1c89        ..      ADDS     r1,r1,#2
        0x000006bc:    0880        ..      LSRS     r0,r0,#2
        0x000006be:    4350        PC      MULS     r0,r2,r0
        0x000006c0:    fb11f103    ....    SMULBB   r1,r1,r3
        0x000006c4:    fbb0f0f1    ....    UDIV     r0,r0,r1
        0x000006c8:    0080        ..      LSLS     r0,r0,#2
        0x000006ca:    bd08        ..      POP      {r3,pc}
    $d
        0x000006cc:    04020201    ....    DCD    67240449
        0x000006d0:    40000240    @..@    DCD    1073742400
        0x000006d4:    01518000    ..Q.    DCD    22118400
        0x000006d8:    00b71b00    ....    DCD    12000000
    $t
    i.CLK_SetCoreClock
    CLK_SetCoreClock
        0x000006dc:    b570        p.      PUSH     {r4-r6,lr}
        0x000006de:    f04f4680    O..F    MOV      r6,#0x40000000
        0x000006e2:    4604        .F      MOV      r4,r0
        0x000006e4:    f8d60250    ..P.    LDR      r0,[r6,#0x250]
        0x000006e8:    f0000510    ....    AND      r5,r0,#0x10
        0x000006ec:    481d        .H      LDR      r0,[pc,#116] ; [0x764] = 0x44aa200
        0x000006ee:    4284        .B      CMP      r4,r0
        0x000006f0:    d802        ..      BHI      0x6f8 ; CLK_SetCoreClock + 28
        0x000006f2:    481d        .H      LDR      r0,[pc,#116] ; [0x768] = 0x17d7840
        0x000006f4:    4284        .B      CMP      r4,r0
        0x000006f6:    d200        ..      BCS      0x6fa ; CLK_SetCoreClock + 30
        0x000006f8:    4604        .F      MOV      r4,r0
        0x000006fa:    f5067600    ...v    ADD      r6,r6,#0x200
        0x000006fe:    6830        0h      LDR      r0,[r6,#0]
        0x00000700:    f0400004    @...    ORR      r0,r0,#4
        0x00000704:    6030        0`      STR      r0,[r6,#0]
        0x00000706:    f04f0010    O...    MOV      r0,#0x10
        0x0000070a:    f000f897    ....    BL       CLK_WaitClockReady ; 0x83c
        0x0000070e:    6930        0i      LDR      r0,[r6,#0x10]
        0x00000710:    f0400007    @...    ORR      r0,r0,#7
        0x00000714:    6130        0a      STR      r0,[r6,#0x10]
        0x00000716:    6a30        0j      LDR      r0,[r6,#0x20]
        0x00000718:    f020000f     ...    BIC      r0,r0,#0xf
        0x0000071c:    6230        0b      STR      r0,[r6,#0x20]
        0x0000071e:    6830        0h      LDR      r0,[r6,#0]
        0x00000720:    f5a67600    ...v    SUB      r6,r6,#0x200
        0x00000724:    07c0        ..      LSLS     r0,r0,#31
        0x00000726:    ea4f0144    O.D.    LSL      r1,r4,#1
        0x0000072a:    d004        ..      BEQ      0x736 ; CLK_SetCoreClock + 90
        0x0000072c:    2000        .       MOVS     r0,#0
        0x0000072e:    f7fffe6f    ..o.    BL       CLK_EnablePLL ; 0x410
        0x00000732:    4604        .F      MOV      r4,r0
        0x00000734:    e008        ..      B        0x748 ; CLK_SetCoreClock + 108
        0x00000736:    f44f2000    O..     MOV      r0,#0x80000
        0x0000073a:    f7fffe69    ..i.    BL       CLK_EnablePLL ; 0x410
        0x0000073e:    4604        .F      MOV      r4,r0
        0x00000740:    f8d60250    ..P.    LDR      r0,[r6,#0x250]
        0x00000744:    f0000510    ....    AND      r5,r0,#0x10
        0x00000748:    2101        .!      MOVS     r1,#1
        0x0000074a:    2002        .       MOVS     r0,#2
        0x0000074c:    f000f80e    ....    BL       CLK_SetHCLK ; 0x76c
        0x00000750:    b92d        -.      CBNZ     r5,0x75e ; CLK_SetCoreClock + 130
        0x00000752:    f8d60200    ....    LDR      r0,[r6,#0x200]
        0x00000756:    f0200004     ...    BIC      r0,r0,#4
        0x0000075a:    f8c60200    ....    STR      r0,[r6,#0x200]
        0x0000075e:    0860        `.      LSRS     r0,r4,#1
        0x00000760:    bd70        p.      POP      {r4-r6,pc}
    $d
        0x00000762:    0000        ..      DCW    0
        0x00000764:    044aa200    ..J.    DCD    72000000
        0x00000768:    017d7840    @x}.    DCD    25000000
    $t
    i.CLK_SetHCLK
    CLK_SetHCLK
        0x0000076c:    e92d41f0    -..A    PUSH     {r4-r8,lr}
        0x00000770:    4d14        .M      LDR      r5,[pc,#80] ; [0x7c4] = 0x40000200
        0x00000772:    4606        .F      MOV      r6,r0
        0x00000774:    460f        .F      MOV      r7,r1
        0x00000776:    6d28        (m      LDR      r0,[r5,#0x50]
        0x00000778:    f0000410    ....    AND      r4,r0,#0x10
        0x0000077c:    6828        (h      LDR      r0,[r5,#0]
        0x0000077e:    f0400004    @...    ORR      r0,r0,#4
        0x00000782:    6028        (`      STR      r0,[r5,#0]
        0x00000784:    f04f0010    O...    MOV      r0,#0x10
        0x00000788:    f000f858    ..X.    BL       CLK_WaitClockReady ; 0x83c
        0x0000078c:    6928        (i      LDR      r0,[r5,#0x10]
        0x0000078e:    f0400007    @...    ORR      r0,r0,#7
        0x00000792:    6128        (a      STR      r0,[r5,#0x10]
        0x00000794:    6a28        (j      LDR      r0,[r5,#0x20]
        0x00000796:    f020000f     ...    BIC      r0,r0,#0xf
        0x0000079a:    4338        8C      ORRS     r0,r0,r7
        0x0000079c:    6228        (b      STR      r0,[r5,#0x20]
        0x0000079e:    6928        (i      LDR      r0,[r5,#0x10]
        0x000007a0:    f0200007     ...    BIC      r0,r0,#7
        0x000007a4:    4330        0C      ORRS     r0,r0,r6
        0x000007a6:    6128        (a      STR      r0,[r5,#0x10]
        0x000007a8:    f5a57500    ...u    SUB      r5,r5,#0x200
        0x000007ac:    f001f922    ..".    BL       SystemCoreClockUpdate ; 0x19f4
        0x000007b0:    2c00        .,      CMP      r4,#0
        0x000007b2:    d105        ..      BNE      0x7c0 ; CLK_SetHCLK + 84
        0x000007b4:    f8d50200    ....    LDR      r0,[r5,#0x200]
        0x000007b8:    f0200004     ...    BIC      r0,r0,#4
        0x000007bc:    f8c50200    ....    STR      r0,[r5,#0x200]
        0x000007c0:    e8bd81f0    ....    POP      {r4-r8,pc}
    $d
        0x000007c4:    40000200    ...@    DCD    1073742336
    $t
    i.CLK_SetModuleClock
    CLK_SetModuleClock
        0x000007c8:    b570        p.      PUSH     {r4-r6,lr}
        0x000007ca:    f4103f7f    ...?    TST      r0,#0x3fc00
        0x000007ce:    d00d        ..      BEQ      0x7ec ; CLK_SetModuleClock + 36
        0x000007d0:    4c10        .L      LDR      r4,[pc,#64] ; [0x814] = 0x40000220
        0x000007d2:    f3c04381    ...C    UBFX     r3,r0,#18,#2
        0x000007d6:    eb040383    ....    ADD      r3,r4,r3,LSL #2
        0x000007da:    681c        .h      LDR      r4,[r3,#0]
        0x000007dc:    f3c02587    ...%    UBFX     r5,r0,#10,#8
        0x000007e0:    f3c01644    ..D.    UBFX     r6,r0,#5,#5
        0x000007e4:    40b5        .@      LSLS     r5,r5,r6
        0x000007e6:    43ac        .C      BICS     r4,r4,r5
        0x000007e8:    4314        .C      ORRS     r4,r4,r2
        0x000007ea:    601c        .`      STR      r4,[r3,#0]
        0x000007ec:    0e42        B.      LSRS     r2,r0,#25
        0x000007ee:    0752        R.      LSLS     r2,r2,#29
        0x000007f0:    d00e        ..      BEQ      0x810 ; CLK_SetModuleClock + 72
        0x000007f2:    4b08        .K      LDR      r3,[pc,#32] ; [0x814] = 0x40000220
        0x000007f4:    f3c07201    ...r    UBFX     r2,r0,#28,#2
        0x000007f8:    3b10        .;      SUBS     r3,r3,#0x10
        0x000007fa:    eb030282    ....    ADD      r2,r3,r2,LSL #2
        0x000007fe:    6813        .h      LDR      r3,[r2,#0]
        0x00000800:    f3c06442    ..Bd    UBFX     r4,r0,#25,#3
        0x00000804:    f3c05004    ...P    UBFX     r0,r0,#20,#5
        0x00000808:    4084        .@      LSLS     r4,r4,r0
        0x0000080a:    43a3        .C      BICS     r3,r3,r4
        0x0000080c:    430b        .C      ORRS     r3,r3,r1
        0x0000080e:    6013        .`      STR      r3,[r2,#0]
        0x00000810:    bd70        p.      POP      {r4-r6,pc}
    $d
        0x00000812:    0000        ..      DCW    0
        0x00000814:    40000220     ..@    DCD    1073742368
    $t
    i.CLK_SysTickDelay
    CLK_SysTickDelay
        0x00000818:    4907        .I      LDR      r1,[pc,#28] ; [0x838] = 0x20000004
        0x0000081a:    6809        .h      LDR      r1,[r1,#0]
        0x0000081c:    4348        HC      MULS     r0,r1,r0
        0x0000081e:    f04f21e0    O..!    MOV      r1,#0xe000e000
        0x00000822:    6148        Ha      STR      r0,[r1,#0x14]
        0x00000824:    2200        ."      MOVS     r2,#0
        0x00000826:    618a        .a      STR      r2,[r1,#0x18]
        0x00000828:    2005        .       MOVS     r0,#5
        0x0000082a:    6108        .a      STR      r0,[r1,#0x10]
        0x0000082c:    6908        .i      LDR      r0,[r1,#0x10]
        0x0000082e:    03c0        ..      LSLS     r0,r0,#15
        0x00000830:    d5fc        ..      BPL      0x82c ; CLK_SysTickDelay + 20
        0x00000832:    610a        .a      STR      r2,[r1,#0x10]
        0x00000834:    4770        pG      BX       lr
    $d
        0x00000836:    0000        ..      DCW    0
        0x00000838:    20000004    ...     DCD    536870916
    $t
    i.CLK_WaitClockReady
    CLK_WaitClockReady
        0x0000083c:    4684        .F      MOV      r12,r0
        0x0000083e:    4908        .I      LDR      r1,[pc,#32] ; [0x860] = 0x20f580
        0x00000840:    f04f4280    O..B    MOV      r2,#0x40000000
        0x00000844:    e005        ..      B        0x852 ; CLK_WaitClockReady + 22
        0x00000846:    1e0b        ..      SUBS     r3,r1,#0
        0x00000848:    f1a10101    ....    SUB      r1,r1,#1
        0x0000084c:    dc01        ..      BGT      0x852 ; CLK_WaitClockReady + 22
        0x0000084e:    2000        .       MOVS     r0,#0
        0x00000850:    4770        pG      BX       lr
        0x00000852:    f8d23250    ..P2    LDR      r3,[r2,#0x250]
        0x00000856:    ea3c0003    <...    BICS     r0,r12,r3
        0x0000085a:    d1f4        ..      BNE      0x846 ; CLK_WaitClockReady + 10
        0x0000085c:    2001        .       MOVS     r0,#1
        0x0000085e:    4770        pG      BX       lr
    $d
        0x00000860:    0020f580    .. .    DCD    2160000
    $t
    i.EADC_ConfigSampleModule
    EADC_ConfigSampleModule
        0x00000864:    b510        ..      PUSH     {r4,lr}
        0x00000866:    eb000081    ....    ADD      r0,r0,r1,LSL #2
        0x0000086a:    f8501f80    P...    LDR      r1,[r0,#0x80]!
        0x0000086e:    4c04        .L      LDR      r4,[pc,#16] ; [0x880] = 0xffe0ffc0
        0x00000870:    4021        !@      ANDS     r1,r1,r4
        0x00000872:    6001        .`      STR      r1,[r0,#0]
        0x00000874:    6801        .h      LDR      r1,[r0,#0]
        0x00000876:    431a        .C      ORRS     r2,r2,r3
        0x00000878:    4311        .C      ORRS     r1,r1,r2
        0x0000087a:    6001        .`      STR      r1,[r0,#0]
        0x0000087c:    bd10        ..      POP      {r4,pc}
    $d
        0x0000087e:    0000        ..      DCW    0
        0x00000880:    ffe0ffc0    ....    DCD    4292935616
    $t
    i.EADC_Open
    EADC_Open
        0x00000884:    6d02        .m      LDR      r2,[r0,#0x50]
        0x00000886:    f4227280    "..r    BIC      r2,r2,#0x100
        0x0000088a:    6502        .e      STR      r2,[r0,#0x50]
        0x0000088c:    6d02        .m      LDR      r2,[r0,#0x50]
        0x0000088e:    f0410101    A...    ORR      r1,r1,#1
        0x00000892:    430a        .C      ORRS     r2,r2,r1
        0x00000894:    6502        .e      STR      r2,[r0,#0x50]
        0x00000896:    4770        pG      BX       lr
    i.EADC_SetInternalSampleTime
    EADC_SetInternalSampleTime
        0x00000898:    6d02        .m      LDR      r2,[r0,#0x50]
        0x0000089a:    f42222e0    ".."    BIC      r2,r2,#0x70000
        0x0000089e:    6502        .e      STR      r2,[r0,#0x50]
        0x000008a0:    6d02        .m      LDR      r2,[r0,#0x50]
        0x000008a2:    4b03        .K      LDR      r3,[pc,#12] ; [0x8b0] = 0xffff0000
        0x000008a4:    eb034101    ...A    ADD      r1,r3,r1,LSL #16
        0x000008a8:    430a        .C      ORRS     r2,r2,r1
        0x000008aa:    6502        .e      STR      r2,[r0,#0x50]
        0x000008ac:    4770        pG      BX       lr
    $d
        0x000008ae:    0000        ..      DCW    0
        0x000008b0:    ffff0000    ....    DCD    4294901760
    $t
    i.GPIO_SetMode
    GPIO_SetMode
        0x000008b4:    b5f0        ..      PUSH     {r4-r7,lr}
        0x000008b6:    2300        .#      MOVS     r3,#0
        0x000008b8:    2701        .'      MOVS     r7,#1
        0x000008ba:    f04f0c03    O...    MOV      r12,#3
        0x000008be:    fa07f403    ....    LSL      r4,r7,r3
        0x000008c2:    420c        .B      TST      r4,r1
        0x000008c4:    d008        ..      BEQ      0x8d8 ; GPIO_SetMode + 36
        0x000008c6:    6805        .h      LDR      r5,[r0,#0]
        0x000008c8:    005c        \.      LSLS     r4,r3,#1
        0x000008ca:    fa0cf604    ....    LSL      r6,r12,r4
        0x000008ce:    43b5        .C      BICS     r5,r5,r6
        0x000008d0:    fa02f404    ....    LSL      r4,r2,r4
        0x000008d4:    4325        %C      ORRS     r5,r5,r4
        0x000008d6:    6005        .`      STR      r5,[r0,#0]
        0x000008d8:    1c5b        [.      ADDS     r3,r3,#1
        0x000008da:    2b10        .+      CMP      r3,#0x10
        0x000008dc:    d3ef        ..      BCC      0x8be ; GPIO_SetMode + 10
        0x000008de:    bdf0        ..      POP      {r4-r7,pc}
    i.Get_ADC_Knob
    Get_ADC_Knob
        0x000008e0:    4805        .H      LDR      r0,[pc,#20] ; [0x8f8] = 0x40043000
        0x000008e2:    2101        .!      MOVS     r1,#1
        0x000008e4:    f8c010f8    ....    STR      r1,[r0,#0xf8]
        0x000008e8:    6541        Ae      STR      r1,[r0,#0x54]
        0x000008ea:    f8d010f8    ....    LDR      r1,[r0,#0xf8]
        0x000008ee:    07c9        ..      LSLS     r1,r1,#31
        0x000008f0:    d0fb        ..      BEQ      0x8ea ; Get_ADC_Knob + 10
        0x000008f2:    6800        .h      LDR      r0,[r0,#0]
        0x000008f4:    b280        ..      UXTH     r0,r0
        0x000008f6:    4770        pG      BX       lr
    $d
        0x000008f8:    40043000    .0.@    DCD    1074016256
    $t
    i.Get_Key_Input
    Get_Key_Input
        0x000008fc:    490c        .I      LDR      r1,[pc,#48] ; [0x930] = 0x40004908
        0x000008fe:    2000        .       MOVS     r0,#0
        0x00000900:    6809        .h      LDR      r1,[r1,#0]
        0x00000902:    b901        ..      CBNZ     r1,0x906 ; Get_Key_Input + 10
        0x00000904:    2001        .       MOVS     r0,#1
        0x00000906:    490a        .I      LDR      r1,[pc,#40] ; [0x930] = 0x40004908
        0x00000908:    39e8        .9      SUBS     r1,r1,#0xe8
        0x0000090a:    6809        .h      LDR      r1,[r1,#0]
        0x0000090c:    b909        ..      CBNZ     r1,0x912 ; Get_Key_Input + 22
        0x0000090e:    f0400002    @...    ORR      r0,r0,#2
        0x00000912:    4907        .I      LDR      r1,[pc,#28] ; [0x930] = 0x40004908
        0x00000914:    39b0        .9      SUBS     r1,r1,#0xb0
        0x00000916:    6809        .h      LDR      r1,[r1,#0]
        0x00000918:    b909        ..      CBNZ     r1,0x91e ; Get_Key_Input + 34
        0x0000091a:    f0400004    @...    ORR      r0,r0,#4
        0x0000091e:    4904        .I      LDR      r1,[pc,#16] ; [0x930] = 0x40004908
        0x00000920:    39ac        .9      SUBS     r1,r1,#0xac
        0x00000922:    6809        .h      LDR      r1,[r1,#0]
        0x00000924:    2900        .)      CMP      r1,#0
        0x00000926:    d101        ..      BNE      0x92c ; Get_Key_Input + 48
        0x00000928:    f0400008    @...    ORR      r0,r0,#8
        0x0000092c:    4770        pG      BX       lr
    $d
        0x0000092e:    0000        ..      DCW    0
        0x00000930:    40004908    .I.@    DCD    1073760520
    $t
    i.Hard_Fault_Handler
    Hard_Fault_Handler
    __tagsym$$used
        0x00000934:    4604        .F      MOV      r4,r0
        0x00000936:    a003        ..      ADR      r0,{pc}+0xe ; 0x944
        0x00000938:    f001f95e    ..^.    BL       __0printf$8 ; 0x1bf8
        0x0000093c:    4620         F      MOV      r0,r4
        0x0000093e:    f001fc9b    ....    BL       stackDump ; 0x2278
        0x00000942:    e7fe        ..      B        0x942 ; Hard_Fault_Handler + 14
    $d
        0x00000944:    48206e49    In H    DCD    1210084937
        0x00000948:    20647261    ard     DCD    543453793
        0x0000094c:    6c756146    Faul    DCD    1819631942
        0x00000950:    61482074    t Ha    DCD    1632116852
        0x00000954:    656c646e    ndle    DCD    1701602414
        0x00000958:    00000a72    r...    DCD    2674
    $t
    i.I2C1_IRQHandler
    I2C1_IRQHandler
        0x0000095c:    4907        .I      LDR      r1,[pc,#28] ; [0x97c] = 0x40081000
        0x0000095e:    68c8        .h      LDR      r0,[r1,#0xc]
        0x00000960:    694a        Ji      LDR      r2,[r1,#0x14]
        0x00000962:    43d2        .C      MVNS     r2,r2
        0x00000964:    07d2        ..      LSLS     r2,r2,#31
        0x00000966:    d004        ..      BEQ      0x972 ; I2C1_IRQHandler + 22
        0x00000968:    4905        .I      LDR      r1,[pc,#20] ; [0x980] = 0x20000034
        0x0000096a:    6889        .h      LDR      r1,[r1,#8]
        0x0000096c:    2900        .)      CMP      r1,#0
        0x0000096e:    d003        ..      BEQ      0x978 ; I2C1_IRQHandler + 28
        0x00000970:    4708        .G      BX       r1
        0x00000972:    4608        .F      MOV      r0,r1
        0x00000974:    f000b806    ....    B.W      I2C_ClearTimeoutFlag ; 0x984
        0x00000978:    4770        pG      BX       lr
    $d
        0x0000097a:    0000        ..      DCW    0
        0x0000097c:    40081000    ...@    DCD    1074270208
        0x00000980:    20000034    4..     DCD    536870964
    $t
    i.I2C_ClearTimeoutFlag
    I2C_ClearTimeoutFlag
        0x00000984:    6941        Ai      LDR      r1,[r0,#0x14]
        0x00000986:    f0410101    A...    ORR      r1,r1,#1
        0x0000098a:    6141        Aa      STR      r1,[r0,#0x14]
        0x0000098c:    4770        pG      BX       lr
        0x0000098e:    0000        ..      MOVS     r0,r0
    i.I2C_EEPROM_Init
    I2C_EEPROM_Init
        0x00000990:    b510        ..      PUSH     {r4,lr}
        0x00000992:    f04f4080    O..@    MOV      r0,#0x40000000
        0x00000996:    6c01        .l      LDR      r1,[r0,#0x40]
        0x00000998:    f4212170    !.p!    BIC      r1,r1,#0xf0000
        0x0000099c:    6401        .d      STR      r1,[r0,#0x40]
        0x0000099e:    6c01        .l      LDR      r1,[r0,#0x40]
        0x000009a0:    f4413140    A.@1    ORR      r1,r1,#0x30000
        0x000009a4:    6401        .d      STR      r1,[r0,#0x40]
        0x000009a6:    6d01        .m      LDR      r1,[r0,#0x50]
        0x000009a8:    f021010f    !...    BIC      r1,r1,#0xf
        0x000009ac:    6501        .e      STR      r1,[r0,#0x50]
        0x000009ae:    6d01        .m      LDR      r1,[r0,#0x50]
        0x000009b0:    f0410103    A...    ORR      r1,r1,#3
        0x000009b4:    6501        .e      STR      r1,[r0,#0x50]
        0x000009b6:    480b        .H      LDR      r0,[pc,#44] ; [0x9e4] = 0x40000009
        0x000009b8:    f7fffd1a    ....    BL       CLK_EnableModuleClock ; 0x3f0
        0x000009bc:    4c0b        .L      LDR      r4,[pc,#44] ; [0x9ec] = 0x40081000
        0x000009be:    490a        .I      LDR      r1,[pc,#40] ; [0x9e8] = 0x186a0
        0x000009c0:    4620         F      MOV      r0,r4
        0x000009c2:    f000f919    ....    BL       I2C_Open ; 0xbf8
        0x000009c6:    4620         F      MOV      r0,r4
        0x000009c8:    f000f85e    ..^.    BL       I2C_GetBusClockFreq ; 0xa88
        0x000009cc:    4601        .F      MOV      r1,r0
        0x000009ce:    a008        ..      ADR      r0,{pc}+0x22 ; 0x9f0
        0x000009d0:    f001f912    ....    BL       __0printf$8 ; 0x1bf8
        0x000009d4:    4620         F      MOV      r0,r4
        0x000009d6:    f000f851    ..Q.    BL       I2C_EnableInt ; 0xa7c
        0x000009da:    490a        .I      LDR      r1,[pc,#40] ; [0xa04] = 0xe000e104
        0x000009dc:    2080        .       MOVS     r0,#0x80
        0x000009de:    6008        .`      STR      r0,[r1,#0]
        0x000009e0:    bd10        ..      POP      {r4,pc}
    $d
        0x000009e2:    0000        ..      DCW    0
        0x000009e4:    40000009    ...@    DCD    1073741833
        0x000009e8:    000186a0    ....    DCD    100000
        0x000009ec:    40081000    ...@    DCD    1074270208
        0x000009f0:    20433249    I2C     DCD    541274697
        0x000009f4:    636f6c63    cloc    DCD    1668246627
        0x000009f8:    6425206b    k %d    DCD    1680154731
        0x000009fc:    0a7a4820     Hz.    DCD    175786016
        0x00000a00:    00000000    ....    DCD    0
        0x00000a04:    e000e104    ....    DCD    3758153988
    $t
    i.I2C_EEPROM_Read
    I2C_EEPROM_Read
        0x00000a08:    490b        .I      LDR      r1,[pc,#44] ; [0xa38] = 0x20000038
        0x00000a0a:    0a02        ..      LSRS     r2,r0,#8
        0x00000a0c:    700a        .p      STRB     r2,[r1,#0]
        0x00000a0e:    7048        Hp      STRB     r0,[r1,#1]
        0x00000a10:    4809        .H      LDR      r0,[pc,#36] ; [0xa38] = 0x20000038
        0x00000a12:    2100        .!      MOVS     r1,#0
        0x00000a14:    1f00        ..      SUBS     r0,r0,#4
        0x00000a16:    70c1        .p      STRB     r1,[r0,#3]
        0x00000a18:    7041        Ap      STRB     r1,[r0,#1]
        0x00000a1a:    4908        .I      LDR      r1,[pc,#32] ; [0xa3c] = 0xa9d
        0x00000a1c:    6081        .`      STR      r1,[r0,#8]
        0x00000a1e:    4908        .I      LDR      r1,[pc,#32] ; [0xa40] = 0x40081000
        0x00000a20:    680a        .h      LDR      r2,[r1,#0]
        0x00000a22:    f022023c    ".<.    BIC      r2,r2,#0x3c
        0x00000a26:    f0420220    B. .    ORR      r2,r2,#0x20
        0x00000a2a:    600a        .`      STR      r2,[r1,#0]
        0x00000a2c:    7841        Ax      LDRB     r1,[r0,#1]
        0x00000a2e:    2900        .)      CMP      r1,#0
        0x00000a30:    d0fc        ..      BEQ      0xa2c ; I2C_EEPROM_Read + 36
        0x00000a32:    7880        .x      LDRB     r0,[r0,#2]
        0x00000a34:    4770        pG      BX       lr
    $d
        0x00000a36:    0000        ..      DCW    0
        0x00000a38:    20000038    8..     DCD    536870968
        0x00000a3c:    00000a9d    ....    DCD    2717
        0x00000a40:    40081000    ...@    DCD    1074270208
    $t
    i.I2C_EEPROM_Write
    I2C_EEPROM_Write
        0x00000a44:    4a0a        .J      LDR      r2,[pc,#40] ; [0xa70] = 0x20000038
        0x00000a46:    0a03        ..      LSRS     r3,r0,#8
        0x00000a48:    7013        .p      STRB     r3,[r2,#0]
        0x00000a4a:    7050        Pp      STRB     r0,[r2,#1]
        0x00000a4c:    7091        .p      STRB     r1,[r2,#2]
        0x00000a4e:    2100        .!      MOVS     r1,#0
        0x00000a50:    1f10        ..      SUBS     r0,r2,#4
        0x00000a52:    70c1        .p      STRB     r1,[r0,#3]
        0x00000a54:    7041        Ap      STRB     r1,[r0,#1]
        0x00000a56:    4907        .I      LDR      r1,[pc,#28] ; [0xa74] = 0xb5d
        0x00000a58:    6081        .`      STR      r1,[r0,#8]
        0x00000a5a:    4907        .I      LDR      r1,[pc,#28] ; [0xa78] = 0x40081000
        0x00000a5c:    680a        .h      LDR      r2,[r1,#0]
        0x00000a5e:    f022023c    ".<.    BIC      r2,r2,#0x3c
        0x00000a62:    f0420220    B. .    ORR      r2,r2,#0x20
        0x00000a66:    600a        .`      STR      r2,[r1,#0]
        0x00000a68:    7841        Ax      LDRB     r1,[r0,#1]
        0x00000a6a:    2900        .)      CMP      r1,#0
        0x00000a6c:    d0fc        ..      BEQ      0xa68 ; I2C_EEPROM_Write + 36
        0x00000a6e:    4770        pG      BX       lr
    $d
        0x00000a70:    20000038    8..     DCD    536870968
        0x00000a74:    00000b5d    ]...    DCD    2909
        0x00000a78:    40081000    ...@    DCD    1074270208
    $t
    i.I2C_EnableInt
    I2C_EnableInt
        0x00000a7c:    6801        .h      LDR      r1,[r0,#0]
        0x00000a7e:    f0410180    A...    ORR      r1,r1,#0x80
        0x00000a82:    6001        .`      STR      r1,[r0,#0]
        0x00000a84:    4770        pG      BX       lr
        0x00000a86:    0000        ..      MOVS     r0,r0
    i.I2C_GetBusClockFreq
    I2C_GetBusClockFreq
        0x00000a88:    6900        .i      LDR      r0,[r0,#0x10]
        0x00000a8a:    4903        .I      LDR      r1,[pc,#12] ; [0xa98] = 0x20000000
        0x00000a8c:    0080        ..      LSLS     r0,r0,#2
        0x00000a8e:    1d00        ..      ADDS     r0,r0,#4
        0x00000a90:    6809        .h      LDR      r1,[r1,#0]
        0x00000a92:    fbb1f0f0    ....    UDIV     r0,r1,r0
        0x00000a96:    4770        pG      BX       lr
    $d
        0x00000a98:    20000000    ...     DCD    536870912
    $t
    i.I2C_MasterRx
    I2C_MasterRx
        0x00000a9c:    b570        p.      PUSH     {r4-r6,lr}
        0x00000a9e:    4d26        &M      LDR      r5,[pc,#152] ; [0xb38] = 0x20000034
        0x00000aa0:    4c24        $L      LDR      r4,[pc,#144] ; [0xb34] = 0x40081000
        0x00000aa2:    2808        .(      CMP      r0,#8
        0x00000aa4:    782a        *x      LDRB     r2,[r5,#0]
        0x00000aa6:    d017        ..      BEQ      0xad8 ; I2C_MasterRx + 60
        0x00000aa8:    4629        )F      MOV      r1,r5
        0x00000aaa:    1d2e        ..      ADDS     r6,r5,#4
        0x00000aac:    78c9        .x      LDRB     r1,[r1,#3]
        0x00000aae:    1c4b        K.      ADDS     r3,r1,#1
        0x00000ab0:    b2db        ..      UXTB     r3,r3
        0x00000ab2:    2818        .(      CMP      r0,#0x18
        0x00000ab4:    d020         .      BEQ      0xaf8 ; I2C_MasterRx + 92
        0x00000ab6:    2820         (      CMP      r0,#0x20
        0x00000ab8:    d012        ..      BEQ      0xae0 ; I2C_MasterRx + 68
        0x00000aba:    2828        ((      CMP      r0,#0x28
        0x00000abc:    d01a        ..      BEQ      0xaf4 ; I2C_MasterRx + 88
        0x00000abe:    2101        .!      MOVS     r1,#1
        0x00000ac0:    2810        .(      CMP      r0,#0x10
        0x00000ac2:    d023        #.      BEQ      0xb0c ; I2C_MasterRx + 112
        0x00000ac4:    2840        @(      CMP      r0,#0x40
        0x00000ac6:    d024        $.      BEQ      0xb12 ; I2C_MasterRx + 118
        0x00000ac8:    2858        X(      CMP      r0,#0x58
        0x00000aca:    d028        (.      BEQ      0xb1e ; I2C_MasterRx + 130
        0x00000acc:    e8bd4070    ..p@    POP      {r4-r6,lr}
        0x00000ad0:    4601        .F      MOV      r1,r0
        0x00000ad2:    a01a        ..      ADR      r0,{pc}+0x6a ; 0xb3c
        0x00000ad4:    f001b890    ....    B.W      __0printf$8 ; 0x1bf8
        0x00000ad8:    0050        P.      LSLS     r0,r2,#1
        0x00000ada:    e019        ..      B        0xb10 ; I2C_MasterRx + 116
        0x00000adc:    6020         `      STR      r0,[r4,#0]
        0x00000ade:    bd70        p.      POP      {r4-r6,pc}
        0x00000ae0:    4620         F      MOV      r0,r4
        0x00000ae2:    f000f8a3    ....    BL       I2C_STOP ; 0xc2c
        0x00000ae6:    6821        !h      LDR      r1,[r4,#0]
        0x00000ae8:    f0210108    !...    BIC      r1,r1,#8
        0x00000aec:    f0410120    A. .    ORR      r1,r1,#0x20
        0x00000af0:    6021        !`      STR      r1,[r4,#0]
        0x00000af2:    bd70        p.      POP      {r4-r6,pc}
        0x00000af4:    2902        .)      CMP      r1,#2
        0x00000af6:    d003        ..      BEQ      0xb00 ; I2C_MasterRx + 100
        0x00000af8:    5c70        p\      LDRB     r0,[r6,r1]
        0x00000afa:    60a0        .`      STR      r0,[r4,#8]
        0x00000afc:    70eb        .p      STRB     r3,[r5,#3]
        0x00000afe:    e008        ..      B        0xb12 ; I2C_MasterRx + 118
        0x00000b00:    6820         h      LDR      r0,[r4,#0]
        0x00000b02:    f020003c     .<.    BIC      r0,r0,#0x3c
        0x00000b06:    f0400028    @.(.    ORR      r0,r0,#0x28
        0x00000b0a:    e7e7        ..      B        0xadc ; I2C_MasterRx + 64
        0x00000b0c:    eb010042    ..B.    ADD      r0,r1,r2,LSL #1
        0x00000b10:    60a0        .`      STR      r0,[r4,#8]
        0x00000b12:    6820         h      LDR      r0,[r4,#0]
        0x00000b14:    f020003c     .<.    BIC      r0,r0,#0x3c
        0x00000b18:    f0400008    @...    ORR      r0,r0,#8
        0x00000b1c:    e7de        ..      B        0xadc ; I2C_MasterRx + 64
        0x00000b1e:    68a0        .h      LDR      r0,[r4,#8]
        0x00000b20:    70a8        .p      STRB     r0,[r5,#2]
        0x00000b22:    6820         h      LDR      r0,[r4,#0]
        0x00000b24:    f020003c     .<.    BIC      r0,r0,#0x3c
        0x00000b28:    f0400018    @...    ORR      r0,r0,#0x18
        0x00000b2c:    6020         `      STR      r0,[r4,#0]
        0x00000b2e:    7069        ip      STRB     r1,[r5,#1]
        0x00000b30:    bd70        p.      POP      {r4-r6,pc}
    $d
        0x00000b32:    0000        ..      DCW    0
        0x00000b34:    40081000    ...@    DCD    1074270208
        0x00000b38:    20000034    4..     DCD    536870964
        0x00000b3c:    74617453    Stat    DCD    1952543827
        0x00000b40:    30207375    us 0    DCD    807433077
        0x00000b44:    20782578    x%x     DCD    544744824
        0x00000b48:    4e207369    is N    DCD    1310749545
        0x00000b4c:    7020544f    OT p    DCD    1881166927
        0x00000b50:    65636f72    roce    DCD    1701015410
        0x00000b54:    64657373    ssed    DCD    1684370291
        0x00000b58:    0000000a    ....    DCD    10
    $t
    i.I2C_MasterTx
    I2C_MasterTx
        0x00000b5c:    b570        p.      PUSH     {r4-r6,lr}
        0x00000b5e:    4c1c        .L      LDR      r4,[pc,#112] ; [0xbd0] = 0x40081000
        0x00000b60:    4b1c        .K      LDR      r3,[pc,#112] ; [0xbd4] = 0x20000034
        0x00000b62:    2808        .(      CMP      r0,#8
        0x00000b64:    d010        ..      BEQ      0xb88 ; I2C_MasterTx + 44
        0x00000b66:    4619        .F      MOV      r1,r3
        0x00000b68:    1d1d        ..      ADDS     r5,r3,#4
        0x00000b6a:    78c9        .x      LDRB     r1,[r1,#3]
        0x00000b6c:    1c4a        J.      ADDS     r2,r1,#1
        0x00000b6e:    b2d2        ..      UXTB     r2,r2
        0x00000b70:    2818        .(      CMP      r0,#0x18
        0x00000b72:    d01f        ..      BEQ      0xbb4 ; I2C_MasterTx + 88
        0x00000b74:    2820         (      CMP      r0,#0x20
        0x00000b76:    d011        ..      BEQ      0xb9c ; I2C_MasterTx + 64
        0x00000b78:    2828        ((      CMP      r0,#0x28
        0x00000b7a:    d019        ..      BEQ      0xbb0 ; I2C_MasterTx + 84
        0x00000b7c:    e8bd4070    ..p@    POP      {r4-r6,lr}
        0x00000b80:    4601        .F      MOV      r1,r0
        0x00000b82:    a015        ..      ADR      r0,{pc}+0x56 ; 0xbd8
        0x00000b84:    f001b838    ..8.    B.W      __0printf$8 ; 0x1bf8
        0x00000b88:    7818        .x      LDRB     r0,[r3,#0]
        0x00000b8a:    0040        @.      LSLS     r0,r0,#1
        0x00000b8c:    60a0        .`      STR      r0,[r4,#8]
        0x00000b8e:    6820         h      LDR      r0,[r4,#0]
        0x00000b90:    f020003c     .<.    BIC      r0,r0,#0x3c
        0x00000b94:    f0400008    @...    ORR      r0,r0,#8
        0x00000b98:    6020         `      STR      r0,[r4,#0]
        0x00000b9a:    bd70        p.      POP      {r4-r6,pc}
        0x00000b9c:    4620         F      MOV      r0,r4
        0x00000b9e:    f000f845    ..E.    BL       I2C_STOP ; 0xc2c
        0x00000ba2:    6821        !h      LDR      r1,[r4,#0]
        0x00000ba4:    f0210108    !...    BIC      r1,r1,#8
        0x00000ba8:    f0410120    A. .    ORR      r1,r1,#0x20
        0x00000bac:    6021        !`      STR      r1,[r4,#0]
        0x00000bae:    bd70        p.      POP      {r4-r6,pc}
        0x00000bb0:    2903        .)      CMP      r1,#3
        0x00000bb2:    d003        ..      BEQ      0xbbc ; I2C_MasterTx + 96
        0x00000bb4:    5c68        h\      LDRB     r0,[r5,r1]
        0x00000bb6:    60a0        .`      STR      r0,[r4,#8]
        0x00000bb8:    70da        .p      STRB     r2,[r3,#3]
        0x00000bba:    e7e8        ..      B        0xb8e ; I2C_MasterTx + 50
        0x00000bbc:    6820         h      LDR      r0,[r4,#0]
        0x00000bbe:    f020003c     .<.    BIC      r0,r0,#0x3c
        0x00000bc2:    f0400018    @...    ORR      r0,r0,#0x18
        0x00000bc6:    6020         `      STR      r0,[r4,#0]
        0x00000bc8:    2001        .       MOVS     r0,#1
        0x00000bca:    7058        Xp      STRB     r0,[r3,#1]
        0x00000bcc:    bd70        p.      POP      {r4-r6,pc}
    $d
        0x00000bce:    0000        ..      DCW    0
        0x00000bd0:    40081000    ...@    DCD    1074270208
        0x00000bd4:    20000034    4..     DCD    536870964
        0x00000bd8:    74617453    Stat    DCD    1952543827
        0x00000bdc:    30207375    us 0    DCD    807433077
        0x00000be0:    20782578    x%x     DCD    544744824
        0x00000be4:    4e207369    is N    DCD    1310749545
        0x00000be8:    7020544f    OT p    DCD    1881166927
        0x00000bec:    65636f72    roce    DCD    1701015410
        0x00000bf0:    64657373    ssed    DCD    1684370291
        0x00000bf4:    0000000a    ....    DCD    10
    $t
    i.I2C_Open
    I2C_Open
        0x00000bf8:    4b0b        .K      LDR      r3,[pc,#44] ; [0xc28] = 0x20000000
        0x00000bfa:    0089        ..      LSLS     r1,r1,#2
        0x00000bfc:    681a        .h      LDR      r2,[r3,#0]
        0x00000bfe:    eb020282    ....    ADD      r2,r2,r2,LSL #2
        0x00000c02:    0052        R.      LSLS     r2,r2,#1
        0x00000c04:    fbb2f1f1    ....    UDIV     r1,r2,r1
        0x00000c08:    1d49        I.      ADDS     r1,r1,#5
        0x00000c0a:    220a        ."      MOVS     r2,#0xa
        0x00000c0c:    fbb1f1f2    ....    UDIV     r1,r1,r2
        0x00000c10:    1e4a        J.      SUBS     r2,r1,#1
        0x00000c12:    6102        .a      STR      r2,[r0,#0x10]
        0x00000c14:    6802        .h      LDR      r2,[r0,#0]
        0x00000c16:    f0420240    B.@.    ORR      r2,r2,#0x40
        0x00000c1a:    6002        .`      STR      r2,[r0,#0]
        0x00000c1c:    0088        ..      LSLS     r0,r1,#2
        0x00000c1e:    6819        .h      LDR      r1,[r3,#0]
        0x00000c20:    fbb1f0f0    ....    UDIV     r0,r1,r0
        0x00000c24:    4770        pG      BX       lr
    $d
        0x00000c26:    0000        ..      DCW    0
        0x00000c28:    20000000    ...     DCD    536870912
    $t
    i.I2C_STOP
    I2C_STOP
        0x00000c2c:    6801        .h      LDR      r1,[r0,#0]
        0x00000c2e:    f0410118    A...    ORR      r1,r1,#0x18
        0x00000c32:    6001        .`      STR      r1,[r0,#0]
        0x00000c34:    6801        .h      LDR      r1,[r0,#0]
        0x00000c36:    06c9        ..      LSLS     r1,r1,#27
        0x00000c38:    d4fc        ..      BMI      0xc34 ; I2C_STOP + 8
        0x00000c3a:    4770        pG      BX       lr
    i.Initial_Key_Input
    Initial_Key_Input
        0x00000c3c:    b510        ..      PUSH     {r4,lr}
        0x00000c3e:    2200        ."      MOVS     r2,#0
        0x00000c40:    2104        .!      MOVS     r1,#4
        0x00000c42:    480c        .H      LDR      r0,[pc,#48] ; [0xc74] = 0x40004100
        0x00000c44:    f7fffe36    ..6.    BL       GPIO_SetMode ; 0x8b4
        0x00000c48:    2200        ."      MOVS     r2,#0
        0x00000c4a:    f44f7180    O..q    MOV      r1,#0x100
        0x00000c4e:    f04f2040    O.@     MOV      r0,#0x40004000
        0x00000c52:    f7fffe2f    ../.    BL       GPIO_SetMode ; 0x8b4
        0x00000c56:    4c07        .L      LDR      r4,[pc,#28] ; [0xc74] = 0x40004100
        0x00000c58:    2200        ."      MOVS     r2,#0
        0x00000c5a:    3cc0        .<      SUBS     r4,r4,#0xc0
        0x00000c5c:    2140        @!      MOVS     r1,#0x40
        0x00000c5e:    4620         F      MOV      r0,r4
        0x00000c60:    f7fffe28    ..(.    BL       GPIO_SetMode ; 0x8b4
        0x00000c64:    4620         F      MOV      r0,r4
        0x00000c66:    2200        ."      MOVS     r2,#0
        0x00000c68:    e8bd4010    ...@    POP      {r4,lr}
        0x00000c6c:    2180        .!      MOVS     r1,#0x80
        0x00000c6e:    f7ffbe21    ..!.    B.W      GPIO_SetMode ; 0x8b4
    $d
        0x00000c72:    0000        ..      DCW    0
        0x00000c74:    40004100    .A.@    DCD    1073758464
    $t
    i.Initial_LED
    Initial_LED
        0x00000c78:    b570        p.      PUSH     {r4-r6,lr}
        0x00000c7a:    4c14        .L      LDR      r4,[pc,#80] ; [0xccc] = 0x40004040
        0x00000c7c:    2201        ."      MOVS     r2,#1
        0x00000c7e:    2104        .!      MOVS     r1,#4
        0x00000c80:    4620         F      MOV      r0,r4
        0x00000c82:    f7fffe17    ....    BL       GPIO_SetMode ; 0x8b4
        0x00000c86:    2201        ."      MOVS     r2,#1
        0x00000c88:    2108        .!      MOVS     r1,#8
        0x00000c8a:    4620         F      MOV      r0,r4
        0x00000c8c:    f7fffe12    ....    BL       GPIO_SetMode ; 0x8b4
        0x00000c90:    4d0e        .M      LDR      r5,[pc,#56] ; [0xccc] = 0x40004040
        0x00000c92:    2201        ."      MOVS     r2,#1
        0x00000c94:    3540        @5      ADDS     r5,r5,#0x40
        0x00000c96:    2108        .!      MOVS     r1,#8
        0x00000c98:    4628        (F      MOV      r0,r5
        0x00000c9a:    f7fffe0b    ....    BL       GPIO_SetMode ; 0x8b4
        0x00000c9e:    2201        ."      MOVS     r2,#1
        0x00000ca0:    2104        .!      MOVS     r1,#4
        0x00000ca2:    4628        (F      MOV      r0,r5
        0x00000ca4:    f7fffe06    ....    BL       GPIO_SetMode ; 0x8b4
        0x00000ca8:    2201        ."      MOVS     r2,#1
        0x00000caa:    0251        Q.      LSLS     r1,r2,#9
        0x00000cac:    f04f2040    O.@     MOV      r0,#0x40004000
        0x00000cb0:    f7fffe00    ....    BL       GPIO_SetMode ; 0x8b4
        0x00000cb4:    2201        ."      MOVS     r2,#1
        0x00000cb6:    2102        .!      MOVS     r1,#2
        0x00000cb8:    4620         F      MOV      r0,r4
        0x00000cba:    f7fffdfb    ....    BL       GPIO_SetMode ; 0x8b4
        0x00000cbe:    4628        (F      MOV      r0,r5
        0x00000cc0:    e8bd4070    ..p@    POP      {r4-r6,lr}
        0x00000cc4:    2201        ."      MOVS     r2,#1
        0x00000cc6:    2180        .!      MOVS     r1,#0x80
        0x00000cc8:    f7ffbdf4    ....    B.W      GPIO_SetMode ; 0x8b4
    $d
        0x00000ccc:    40004040    @@.@    DCD    1073758272
    $t
    i.Initial_PWM_LED
    Initial_PWM_LED
        0x00000cd0:    b510        ..      PUSH     {r4,lr}
        0x00000cd2:    f04f4080    O..@    MOV      r0,#0x40000000
        0x00000cd6:    6c41        Al      LDR      r1,[r0,#0x44]
        0x00000cd8:    f64f72f0    O..r    MOV      r2,#0xfff0
        0x00000cdc:    4391        .C      BICS     r1,r1,r2
        0x00000cde:    6441        Ad      STR      r1,[r0,#0x44]
        0x00000ce0:    6c41        Al      LDR      r1,[r0,#0x44]
        0x00000ce2:    f2466260    F.`b    MOV      r2,#0x6660
        0x00000ce6:    4311        .C      ORRS     r1,r1,r2
        0x00000ce8:    6441        Ad      STR      r1,[r0,#0x44]
        0x00000cea:    4c07        .L      LDR      r4,[pc,#28] ; [0xd08] = 0xa2100011
        0x00000cec:    4620         F      MOV      r0,r4
        0x00000cee:    f7fffb7f    ....    BL       CLK_EnableModuleClock ; 0x3f0
        0x00000cf2:    2200        ."      MOVS     r2,#0
        0x00000cf4:    2102        .!      MOVS     r1,#2
        0x00000cf6:    4620         F      MOV      r0,r4
        0x00000cf8:    f7fffd66    ..f.    BL       CLK_SetModuleClock ; 0x7c8
        0x00000cfc:    e8bd4010    ...@    POP      {r4,lr}
        0x00000d00:    4802        .H      LDR      r0,[pc,#8] ; [0xd0c] = 0x8000011
        0x00000d02:    f000bd7d    ..}.    B.W      SYS_ResetModule ; 0x1800
    $d
        0x00000d06:    0000        ..      DCW    0
        0x00000d08:    a2100011    ....    DCD    2718957585
        0x00000d0c:    08000011    ....    DCD    134217745
    $t
    i.IrDA_Code_Exe
    IrDA_Code_Exe
        0x00000d10:    b430        0.      PUSH     {r4,r5}
        0x00000d12:    4a0d        .J      LDR      r2,[pc,#52] ; [0xd48] = 0x2000002c
        0x00000d14:    7803        .x      LDRB     r3,[r0,#0]
        0x00000d16:    f6446120    D. a    MOV      r1,#0x4e20
        0x00000d1a:    7814        .x      LDRB     r4,[r2,#0]
        0x00000d1c:    42a3        .B      CMP      r3,r4
        0x00000d1e:    d10b        ..      BNE      0xd38 ; IrDA_Code_Exe + 40
        0x00000d20:    7843        Cx      LDRB     r3,[r0,#1]
        0x00000d22:    7854        Tx      LDRB     r4,[r2,#1]
        0x00000d24:    42a3        .B      CMP      r3,r4
        0x00000d26:    d107        ..      BNE      0xd38 ; IrDA_Code_Exe + 40
        0x00000d28:    7883        .x      LDRB     r3,[r0,#2]
        0x00000d2a:    7894        .x      LDRB     r4,[r2,#2]
        0x00000d2c:    42a3        .B      CMP      r3,r4
        0x00000d2e:    d103        ..      BNE      0xd38 ; IrDA_Code_Exe + 40
        0x00000d30:    78c0        .x      LDRB     r0,[r0,#3]
        0x00000d32:    78d2        .x      LDRB     r2,[r2,#3]
        0x00000d34:    4290        .B      CMP      r0,r2
        0x00000d36:    d004        ..      BEQ      0xd42 ; IrDA_Code_Exe + 50
        0x00000d38:    2232        2"      MOVS     r2,#0x32
        0x00000d3a:    bc30        0.      POP      {r4,r5}
        0x00000d3c:    2001        .       MOVS     r0,#1
        0x00000d3e:    f000bf25    ..%.    B.W      Write_Buzzer ; 0x1b8c
        0x00000d42:    bc30        0.      POP      {r4,r5}
        0x00000d44:    4770        pG      BX       lr
    $d
        0x00000d46:    0000        ..      DCW    0
        0x00000d48:    2000002c    ,..     DCD    536870956
    $t
    i.IrDA_NEC_TxRx_Init
    IrDA_NEC_TxRx_Init
        0x00000d4c:    b510        ..      PUSH     {r4,lr}
        0x00000d4e:    f04f4080    O..@    MOV      r0,#0x40000000
        0x00000d52:    6c81        .l      LDR      r1,[r0,#0x48]
        0x00000d54:    f0214170    !.pA    BIC      r1,r1,#0xf0000000
        0x00000d58:    6481        .d      STR      r1,[r0,#0x48]
        0x00000d5a:    6c81        .l      LDR      r1,[r0,#0x48]
        0x00000d5c:    f04141c0    A..A    ORR      r1,r1,#0x60000000
        0x00000d60:    6481        .d      STR      r1,[r0,#0x48]
        0x00000d62:    6d01        .m      LDR      r1,[r0,#0x50]
        0x00000d64:    f4214170    !.pA    BIC      r1,r1,#0xf000
        0x00000d68:    6501        .e      STR      r1,[r0,#0x50]
        0x00000d6a:    6d01        .m      LDR      r1,[r0,#0x50]
        0x00000d6c:    f44141c0    A..A    ORR      r1,r1,#0x6000
        0x00000d70:    6501        .e      STR      r1,[r0,#0x50]
        0x00000d72:    4c1f        .L      LDR      r4,[pc,#124] ; [0xdf0] = 0xa2000010
        0x00000d74:    4620         F      MOV      r0,r4
        0x00000d76:    f7fffb3b    ..;.    BL       CLK_EnableModuleClock ; 0x3f0
        0x00000d7a:    2200        ."      MOVS     r2,#0
        0x00000d7c:    2101        .!      MOVS     r1,#1
        0x00000d7e:    4620         F      MOV      r0,r4
        0x00000d80:    f7fffd22    ..".    BL       CLK_SetModuleClock ; 0x7c8
        0x00000d84:    481b        .H      LDR      r0,[pc,#108] ; [0xdf4] = 0x8000010
        0x00000d86:    f000fd3b    ..;.    BL       SYS_ResetModule ; 0x1800
        0x00000d8a:    4c1b        .L      LDR      r4,[pc,#108] ; [0xdf8] = 0x40058000
        0x00000d8c:    231e        .#      MOVS     r3,#0x1e
        0x00000d8e:    f2494270    I.pB    MOV      r2,#0x9470
        0x00000d92:    2103        .!      MOVS     r1,#3
        0x00000d94:    4620         F      MOV      r0,r4
        0x00000d96:    f000fb47    ..G.    BL       PWM_ConfigOutputChannel ; 0x1428
        0x00000d9a:    2108        .!      MOVS     r1,#8
        0x00000d9c:    4620         F      MOV      r0,r4
        0x00000d9e:    f000fc07    ....    BL       PWM_Start ; 0x15b0
        0x00000da2:    2300        .#      MOVS     r3,#0
        0x00000da4:    f44f727a    O.zr    MOV      r2,#0x3e8
        0x00000da8:    2105        .!      MOVS     r1,#5
        0x00000daa:    4620         F      MOV      r0,r4
        0x00000dac:    f000fae4    ....    BL       PWM_ConfigCaptureChannel ; 0x1378
        0x00000db0:    15a2        ..      ASRS     r2,r4,#22
        0x00000db2:    2105        .!      MOVS     r1,#5
        0x00000db4:    4620         F      MOV      r0,r4
        0x00000db6:    f000fbc9    ....    BL       PWM_EnableCaptureInt ; 0x154c
        0x00000dba:    4910        .I      LDR      r1,[pc,#64] ; [0xdfc] = 0xe000e100
        0x00000dbc:    f04f6000    O..`    MOV      r0,#0x8000000
        0x00000dc0:    6008        .`      STR      r0,[r1,#0]
        0x00000dc2:    f04f0120    O. .    MOV      r1,#0x20
        0x00000dc6:    4620         F      MOV      r0,r4
        0x00000dc8:    f000fbf2    ....    BL       PWM_Start ; 0x15b0
        0x00000dcc:    490c        .I      LDR      r1,[pc,#48] ; [0xe00] = 0x400040e4
        0x00000dce:    6808        .h      LDR      r0,[r1,#0]
        0x00000dd0:    f0400080    @...    ORR      r0,r0,#0x80
        0x00000dd4:    6008        .`      STR      r0,[r1,#0]
        0x00000dd6:    f04f0120    O. .    MOV      r1,#0x20
        0x00000dda:    4620         F      MOV      r0,r4
        0x00000ddc:    f000fbab    ....    BL       PWM_EnableCapture ; 0x1536
        0x00000de0:    f8d40204    ....    LDR      r0,[r4,#0x204]
        0x00000de4:    f0405000    @..P    ORR      r0,r0,#0x20000000
        0x00000de8:    f8c40204    ....    STR      r0,[r4,#0x204]
        0x00000dec:    bd10        ..      POP      {r4,pc}
    $d
        0x00000dee:    0000        ..      DCW    0
        0x00000df0:    a2000010    ....    DCD    2717909008
        0x00000df4:    08000010    ....    DCD    134217744
        0x00000df8:    40058000    ...@    DCD    1074102272
        0x00000dfc:    e000e100    ....    DCD    3758153984
        0x00000e00:    400040e4    .@.@    DCD    1073758436
    $t
    i.IrDa_NEC_Rx
    IrDa_NEC_Rx
        0x00000e04:    e92d41f0    -..A    PUSH     {r4-r8,lr}
        0x00000e08:    ed2d8b08    -...    VPUSH    {d8-d11}
        0x00000e0c:    b082        ..      SUB      sp,sp,#8
        0x00000e0e:    4db4        .M      LDR      r5,[pc,#720] ; [0x10e0] = 0x20000040
        0x00000e10:    7829        )x      LDRB     r1,[r5,#0]
        0x00000e12:    2400        .$      MOVS     r4,#0
        0x00000e14:    b3f1        ..      CBZ      r1,0xe94 ; IrDa_NEC_Rx + 144
        0x00000e16:    7829        )x      LDRB     r1,[r5,#0]
        0x00000e18:    2601        .&      MOVS     r6,#1
        0x00000e1a:    2901        .)      CMP      r1,#1
        0x00000e1c:    d050        P.      BEQ      0xec0 ; IrDa_NEC_Rx + 188
        0x00000e1e:    7829        )x      LDRB     r1,[r5,#0]
        0x00000e20:    ed9f8bb0    ....    VLDR     d8,[pc,#704] ; [0x10e4] = 0xcccccccd
        0x00000e24:    ed9f9bb1    ....    VLDR     d9,[pc,#708] ; [0x10ec] = 0x33333333
        0x00000e28:    ed9fabb2    ....    VLDR     d10,[pc,#712] ; [0x10f4] = 0xb851eb85
        0x00000e2c:    ed9fbbb3    ....    VLDR     d11,[pc,#716] ; [0x10fc] = 0x47ae147b
        0x00000e30:    2902        .)      CMP      r1,#2
        0x00000e32:    d305        ..      BCC      0xe40 ; IrDa_NEC_Rx + 60
        0x00000e34:    7829        )x      LDRB     r1,[r5,#0]
        0x00000e36:    290a        .)      CMP      r1,#0xa
        0x00000e38:    d202        ..      BCS      0xe40 ; IrDa_NEC_Rx + 60
        0x00000e3a:    7869        ix      LDRB     r1,[r5,#1]
        0x00000e3c:    2901        .)      CMP      r1,#1
        0x00000e3e:    d066        f.      BEQ      0xf0e ; IrDa_NEC_Rx + 266
        0x00000e40:    7829        )x      LDRB     r1,[r5,#0]
        0x00000e42:    290a        .)      CMP      r1,#0xa
        0x00000e44:    d305        ..      BCC      0xe52 ; IrDa_NEC_Rx + 78
        0x00000e46:    7829        )x      LDRB     r1,[r5,#0]
        0x00000e48:    2912        .)      CMP      r1,#0x12
        0x00000e4a:    d202        ..      BCS      0xe52 ; IrDa_NEC_Rx + 78
        0x00000e4c:    7869        ix      LDRB     r1,[r5,#1]
        0x00000e4e:    2901        .)      CMP      r1,#1
        0x00000e50:    d07d        }.      BEQ      0xf4e ; IrDa_NEC_Rx + 330
        0x00000e52:    7829        )x      LDRB     r1,[r5,#0]
        0x00000e54:    2912        .)      CMP      r1,#0x12
        0x00000e56:    d305        ..      BCC      0xe64 ; IrDa_NEC_Rx + 96
        0x00000e58:    7829        )x      LDRB     r1,[r5,#0]
        0x00000e5a:    291a        .)      CMP      r1,#0x1a
        0x00000e5c:    d202        ..      BCS      0xe64 ; IrDa_NEC_Rx + 96
        0x00000e5e:    7869        ix      LDRB     r1,[r5,#1]
        0x00000e60:    2901        .)      CMP      r1,#1
        0x00000e62:    d075        u.      BEQ      0xf50 ; IrDa_NEC_Rx + 332
        0x00000e64:    7829        )x      LDRB     r1,[r5,#0]
        0x00000e66:    291a        .)      CMP      r1,#0x1a
        0x00000e68:    d348        H.      BCC      0xefc ; IrDa_NEC_Rx + 248
        0x00000e6a:    7829        )x      LDRB     r1,[r5,#0]
        0x00000e6c:    2922        ")      CMP      r1,#0x22
        0x00000e6e:    d245        E.      BCS      0xefc ; IrDa_NEC_Rx + 248
        0x00000e70:    7869        ix      LDRB     r1,[r5,#1]
        0x00000e72:    2901        .)      CMP      r1,#1
        0x00000e74:    d142        B.      BNE      0xefc ; IrDa_NEC_Rx + 248
        0x00000e76:    7829        )x      LDRB     r1,[r5,#0]
        0x00000e78:    1c49        I.      ADDS     r1,r1,#1
        0x00000e7a:    7029        )p      STRB     r1,[r5,#0]
        0x00000e7c:    79a9        .y      LDRB     r1,[r5,#6]
        0x00000e7e:    0849        I.      LSRS     r1,r1,#1
        0x00000e80:    71a9        .q      STRB     r1,[r5,#6]
        0x00000e82:    f7fff9b5    ....    BL       __aeabi_ui2d ; 0x1f0
        0x00000e86:    460f        .F      MOV      r7,r1
        0x00000e88:    4606        .F      MOV      r6,r0
        0x00000e8a:    ec470b10    G...    VMOV     d0,r0,r7
        0x00000e8e:    ec532b18    S..+    VMOV     r2,r3,d8
        0x00000e92:    e000        ..      B        0xe96 ; IrDa_NEC_Rx + 146
        0x00000e94:    e011        ..      B        0xeba ; IrDa_NEC_Rx + 182
        0x00000e96:    ec510b10    Q...    VMOV     r0,r1,d0
        0x00000e9a:    f7fff9cb    ....    BL       __aeabi_cdrcmple ; 0x234
        0x00000e9e:    d86f        o.      BHI      0xf80 ; IrDa_NEC_Rx + 380
        0x00000ea0:    ec476b10    G..k    VMOV     d0,r6,r7
        0x00000ea4:    ec532b19    S..+    VMOV     r2,r3,d9
        0x00000ea8:    ec510b10    Q...    VMOV     r0,r1,d0
        0x00000eac:    f7fff9ae    ....    BL       __aeabi_cdcmpeq ; 0x20c
        0x00000eb0:    d866        f.      BHI      0xf80 ; IrDa_NEC_Rx + 380
        0x00000eb2:    79a8        .y      LDRB     r0,[r5,#6]
        0x00000eb4:    f000007f    ....    AND      r0,r0,#0x7f
        0x00000eb8:    e0e8        ..      B        0x108c ; IrDa_NEC_Rx + 648
        0x00000eba:    706c        lp      STRB     r4,[r5,#1]
        0x00000ebc:    70ac        .p      STRB     r4,[r5,#2]
        0x00000ebe:    e01a        ..      B        0xef6 ; IrDa_NEC_Rx + 242
        0x00000ec0:    f7fff996    ....    BL       __aeabi_ui2d ; 0x1f0
        0x00000ec4:    4688        .F      MOV      r8,r1
        0x00000ec6:    ec480b10    H...    VMOV     d0,r0,r8
        0x00000eca:    4607        .F      MOV      r7,r0
        0x00000ecc:    ed9f1b8d    ....    VLDR     d1,[pc,#564] ; [0x1104] = 0xcccccccd
        0x00000ed0:    ec510b10    Q...    VMOV     r0,r1,d0
        0x00000ed4:    ec532b11    S..+    VMOV     r2,r3,d1
        0x00000ed8:    f7fff9ac    ....    BL       __aeabi_cdrcmple ; 0x234
        0x00000edc:    d813        ..      BHI      0xf06 ; IrDa_NEC_Rx + 258
        0x00000ede:    ec487b10    H..{    VMOV     d0,r7,r8
        0x00000ee2:    ed9f1b8a    ....    VLDR     d1,[pc,#552] ; [0x110c] = 0x33333333
        0x00000ee6:    ec510b10    Q...    VMOV     r0,r1,d0
        0x00000eea:    ec532b11    S..+    VMOV     r2,r3,d1
        0x00000eee:    f7fff98d    ....    BL       __aeabi_cdcmpeq ; 0x20c
        0x00000ef2:    d808        ..      BHI      0xf06 ; IrDa_NEC_Rx + 258
        0x00000ef4:    706e        np      STRB     r6,[r5,#1]
        0x00000ef6:    7828        (x      LDRB     r0,[r5,#0]
        0x00000ef8:    1c40        @.      ADDS     r0,r0,#1
        0x00000efa:    7028        (p      STRB     r0,[r5,#0]
        0x00000efc:    b002        ..      ADD      sp,sp,#8
        0x00000efe:    ecbd8b08    ....    VPOP     {d8-d11}
        0x00000f02:    e8bd81f0    ....    POP      {r4-r8,pc}
        0x00000f06:    702e        .p      STRB     r6,[r5,#0]
        0x00000f08:    706c        lp      STRB     r4,[r5,#1]
        0x00000f0a:    70ac        .p      STRB     r4,[r5,#2]
        0x00000f0c:    e7f6        ..      B        0xefc ; IrDa_NEC_Rx + 248
        0x00000f0e:    7829        )x      LDRB     r1,[r5,#0]
        0x00000f10:    1c49        I.      ADDS     r1,r1,#1
        0x00000f12:    7029        )p      STRB     r1,[r5,#0]
        0x00000f14:    78e9        .x      LDRB     r1,[r5,#3]
        0x00000f16:    0849        I.      LSRS     r1,r1,#1
        0x00000f18:    70e9        .p      STRB     r1,[r5,#3]
        0x00000f1a:    f7fff969    ..i.    BL       __aeabi_ui2d ; 0x1f0
        0x00000f1e:    460f        .F      MOV      r7,r1
        0x00000f20:    ec470b10    G...    VMOV     d0,r0,r7
        0x00000f24:    4606        .F      MOV      r6,r0
        0x00000f26:    ec532b18    S..+    VMOV     r2,r3,d8
        0x00000f2a:    ec510b10    Q...    VMOV     r0,r1,d0
        0x00000f2e:    f7fff981    ....    BL       __aeabi_cdrcmple ; 0x234
        0x00000f32:    d80e        ..      BHI      0xf52 ; IrDa_NEC_Rx + 334
        0x00000f34:    ec476b10    G..k    VMOV     d0,r6,r7
        0x00000f38:    ec532b19    S..+    VMOV     r2,r3,d9
        0x00000f3c:    ec510b10    Q...    VMOV     r0,r1,d0
        0x00000f40:    f7fff964    ..d.    BL       __aeabi_cdcmpeq ; 0x20c
        0x00000f44:    d805        ..      BHI      0xf52 ; IrDa_NEC_Rx + 334
        0x00000f46:    78e8        .x      LDRB     r0,[r5,#3]
        0x00000f48:    f000007f    ....    AND      r0,r0,#0x7f
        0x00000f4c:    e016        ..      B        0xf7c ; IrDa_NEC_Rx + 376
        0x00000f4e:    e01a        ..      B        0xf86 ; IrDa_NEC_Rx + 386
        0x00000f50:    e050        P.      B        0xff4 ; IrDa_NEC_Rx + 496
        0x00000f52:    ec476b10    G..k    VMOV     d0,r6,r7
        0x00000f56:    ec532b1a    S..+    VMOV     r2,r3,d10
        0x00000f5a:    ec510b10    Q...    VMOV     r0,r1,d0
        0x00000f5e:    f7fff969    ..i.    BL       __aeabi_cdrcmple ; 0x234
        0x00000f62:    d80e        ..      BHI      0xf82 ; IrDa_NEC_Rx + 382
        0x00000f64:    ec476b10    G..k    VMOV     d0,r6,r7
        0x00000f68:    ec532b1b    S..+    VMOV     r2,r3,d11
        0x00000f6c:    ec510b10    Q...    VMOV     r0,r1,d0
        0x00000f70:    f7fff94c    ..L.    BL       __aeabi_cdcmpeq ; 0x20c
        0x00000f74:    d805        ..      BHI      0xf82 ; IrDa_NEC_Rx + 382
        0x00000f76:    78e8        .x      LDRB     r0,[r5,#3]
        0x00000f78:    f0400080    @...    ORR      r0,r0,#0x80
        0x00000f7c:    70e8        .p      STRB     r0,[r5,#3]
        0x00000f7e:    e7bd        ..      B        0xefc ; IrDa_NEC_Rx + 248
        0x00000f80:    e06f        o.      B        0x1062 ; IrDa_NEC_Rx + 606
        0x00000f82:    702c        ,p      STRB     r4,[r5,#0]
        0x00000f84:    e7ba        ..      B        0xefc ; IrDa_NEC_Rx + 248
        0x00000f86:    7829        )x      LDRB     r1,[r5,#0]
        0x00000f88:    1c49        I.      ADDS     r1,r1,#1
        0x00000f8a:    7029        )p      STRB     r1,[r5,#0]
        0x00000f8c:    7929        )y      LDRB     r1,[r5,#4]
        0x00000f8e:    0849        I.      LSRS     r1,r1,#1
        0x00000f90:    7129        )q      STRB     r1,[r5,#4]
        0x00000f92:    f7fff92d    ..-.    BL       __aeabi_ui2d ; 0x1f0
        0x00000f96:    460f        .F      MOV      r7,r1
        0x00000f98:    ec470b10    G...    VMOV     d0,r0,r7
        0x00000f9c:    4606        .F      MOV      r6,r0
        0x00000f9e:    ec532b18    S..+    VMOV     r2,r3,d8
        0x00000fa2:    ec510b10    Q...    VMOV     r0,r1,d0
        0x00000fa6:    f7fff945    ..E.    BL       __aeabi_cdrcmple ; 0x234
        0x00000faa:    d80c        ..      BHI      0xfc6 ; IrDa_NEC_Rx + 450
        0x00000fac:    ec476b10    G..k    VMOV     d0,r6,r7
        0x00000fb0:    ec532b19    S..+    VMOV     r2,r3,d9
        0x00000fb4:    ec510b10    Q...    VMOV     r0,r1,d0
        0x00000fb8:    f7fff928    ..(.    BL       __aeabi_cdcmpeq ; 0x20c
        0x00000fbc:    d803        ..      BHI      0xfc6 ; IrDa_NEC_Rx + 450
        0x00000fbe:    7928        (y      LDRB     r0,[r5,#4]
        0x00000fc0:    f000007f    ....    AND      r0,r0,#0x7f
        0x00000fc4:    e014        ..      B        0xff0 ; IrDa_NEC_Rx + 492
        0x00000fc6:    ec476b10    G..k    VMOV     d0,r6,r7
        0x00000fca:    ec532b1a    S..+    VMOV     r2,r3,d10
        0x00000fce:    ec510b10    Q...    VMOV     r0,r1,d0
        0x00000fd2:    f7fff92f    ../.    BL       __aeabi_cdrcmple ; 0x234
        0x00000fd6:    d8d4        ..      BHI      0xf82 ; IrDa_NEC_Rx + 382
        0x00000fd8:    ec476b10    G..k    VMOV     d0,r6,r7
        0x00000fdc:    ec532b1b    S..+    VMOV     r2,r3,d11
        0x00000fe0:    ec510b10    Q...    VMOV     r0,r1,d0
        0x00000fe4:    f7fff912    ....    BL       __aeabi_cdcmpeq ; 0x20c
        0x00000fe8:    d8cb        ..      BHI      0xf82 ; IrDa_NEC_Rx + 382
        0x00000fea:    7928        (y      LDRB     r0,[r5,#4]
        0x00000fec:    f0400080    @...    ORR      r0,r0,#0x80
        0x00000ff0:    7128        (q      STRB     r0,[r5,#4]
        0x00000ff2:    e783        ..      B        0xefc ; IrDa_NEC_Rx + 248
        0x00000ff4:    7829        )x      LDRB     r1,[r5,#0]
        0x00000ff6:    1c49        I.      ADDS     r1,r1,#1
        0x00000ff8:    7029        )p      STRB     r1,[r5,#0]
        0x00000ffa:    7969        iy      LDRB     r1,[r5,#5]
        0x00000ffc:    0849        I.      LSRS     r1,r1,#1
        0x00000ffe:    7169        iq      STRB     r1,[r5,#5]
        0x00001000:    f7fff8f6    ....    BL       __aeabi_ui2d ; 0x1f0
        0x00001004:    460f        .F      MOV      r7,r1
        0x00001006:    ec470b10    G...    VMOV     d0,r0,r7
        0x0000100a:    4606        .F      MOV      r6,r0
        0x0000100c:    ec532b18    S..+    VMOV     r2,r3,d8
        0x00001010:    ec510b10    Q...    VMOV     r0,r1,d0
        0x00001014:    f7fff90e    ....    BL       __aeabi_cdrcmple ; 0x234
        0x00001018:    d80c        ..      BHI      0x1034 ; IrDa_NEC_Rx + 560
        0x0000101a:    ec476b10    G..k    VMOV     d0,r6,r7
        0x0000101e:    ec532b19    S..+    VMOV     r2,r3,d9
        0x00001022:    ec510b10    Q...    VMOV     r0,r1,d0
        0x00001026:    f7fff8f1    ....    BL       __aeabi_cdcmpeq ; 0x20c
        0x0000102a:    d803        ..      BHI      0x1034 ; IrDa_NEC_Rx + 560
        0x0000102c:    7968        hy      LDRB     r0,[r5,#5]
        0x0000102e:    f000007f    ....    AND      r0,r0,#0x7f
        0x00001032:    e014        ..      B        0x105e ; IrDa_NEC_Rx + 602
        0x00001034:    ec476b10    G..k    VMOV     d0,r6,r7
        0x00001038:    ec532b1a    S..+    VMOV     r2,r3,d10
        0x0000103c:    ec510b10    Q...    VMOV     r0,r1,d0
        0x00001040:    f7fff8f8    ....    BL       __aeabi_cdrcmple ; 0x234
        0x00001044:    d89d        ..      BHI      0xf82 ; IrDa_NEC_Rx + 382
        0x00001046:    ec476b10    G..k    VMOV     d0,r6,r7
        0x0000104a:    ec532b1b    S..+    VMOV     r2,r3,d11
        0x0000104e:    ec510b10    Q...    VMOV     r0,r1,d0
        0x00001052:    f7fff8db    ....    BL       __aeabi_cdcmpeq ; 0x20c
        0x00001056:    d894        ..      BHI      0xf82 ; IrDa_NEC_Rx + 382
        0x00001058:    7968        hy      LDRB     r0,[r5,#5]
        0x0000105a:    f0400080    @...    ORR      r0,r0,#0x80
        0x0000105e:    7168        hq      STRB     r0,[r5,#5]
        0x00001060:    e74c        L.      B        0xefc ; IrDa_NEC_Rx + 248
        0x00001062:    ec476b10    G..k    VMOV     d0,r6,r7
        0x00001066:    ec532b1a    S..+    VMOV     r2,r3,d10
        0x0000106a:    ec510b10    Q...    VMOV     r0,r1,d0
        0x0000106e:    f7fff8e1    ....    BL       __aeabi_cdrcmple ; 0x234
        0x00001072:    d80d        ..      BHI      0x1090 ; IrDa_NEC_Rx + 652
        0x00001074:    ec476b10    G..k    VMOV     d0,r6,r7
        0x00001078:    ec532b1b    S..+    VMOV     r2,r3,d11
        0x0000107c:    ec510b10    Q...    VMOV     r0,r1,d0
        0x00001080:    f7fff8c4    ....    BL       __aeabi_cdcmpeq ; 0x20c
        0x00001084:    d804        ..      BHI      0x1090 ; IrDa_NEC_Rx + 652
        0x00001086:    79a8        .y      LDRB     r0,[r5,#6]
        0x00001088:    f0400080    @...    ORR      r0,r0,#0x80
        0x0000108c:    71a8        .q      STRB     r0,[r5,#6]
        0x0000108e:    e000        ..      B        0x1092 ; IrDa_NEC_Rx + 654
        0x00001090:    702c        ,p      STRB     r4,[r5,#0]
        0x00001092:    7828        (x      LDRB     r0,[r5,#0]
        0x00001094:    2822        "(      CMP      r0,#0x22
        0x00001096:    d1ac        ..      BNE      0xff2 ; IrDa_NEC_Rx + 494
        0x00001098:    7968        hy      LDRB     r0,[r5,#5]
        0x0000109a:    79a9        .y      LDRB     r1,[r5,#6]
        0x0000109c:    4048        H@      EORS     r0,r0,r1
        0x0000109e:    28ff        .(      CMP      r0,#0xff
        0x000010a0:    f47faf6f    ..o.    BNE      0xf82 ; IrDa_NEC_Rx + 382
        0x000010a4:    706c        lp      STRB     r4,[r5,#1]
        0x000010a6:    78e9        .x      LDRB     r1,[r5,#3]
        0x000010a8:    480d        .H      LDR      r0,[pc,#52] ; [0x10e0] = 0x20000040
        0x000010aa:    3008        .0      ADDS     r0,r0,#8
        0x000010ac:    7001        .p      STRB     r1,[r0,#0]
        0x000010ae:    7929        )y      LDRB     r1,[r5,#4]
        0x000010b0:    7041        Ap      STRB     r1,[r0,#1]
        0x000010b2:    7969        iy      LDRB     r1,[r5,#5]
        0x000010b4:    7081        .p      STRB     r1,[r0,#2]
        0x000010b6:    79a9        .y      LDRB     r1,[r5,#6]
        0x000010b8:    70c1        .p      STRB     r1,[r0,#3]
        0x000010ba:    79e8        .y      LDRB     r0,[r5,#7]
        0x000010bc:    1c40        @.      ADDS     r0,r0,#1
        0x000010be:    71e8        .q      STRB     r0,[r5,#7]
        0x000010c0:    4807        .H      LDR      r0,[pc,#28] ; [0x10e0] = 0x20000040
        0x000010c2:    3008        .0      ADDS     r0,r0,#8
        0x000010c4:    f7fffe24    ..$.    BL       IrDA_Code_Exe ; 0xd10
        0x000010c8:    79a9        .y      LDRB     r1,[r5,#6]
        0x000010ca:    7968        hy      LDRB     r0,[r5,#5]
        0x000010cc:    e9cd0100    ....    STRD     r0,r1,[sp,#0]
        0x000010d0:    792b        +y      LDRB     r3,[r5,#4]
        0x000010d2:    78ea        .x      LDRB     r2,[r5,#3]
        0x000010d4:    79e9        .y      LDRB     r1,[r5,#7]
        0x000010d6:    a00f        ..      ADR      r0,{pc}+0x3e ; 0x1114
        0x000010d8:    f000fd8e    ....    BL       __0printf$8 ; 0x1bf8
        0x000010dc:    e751        Q.      B        0xf82 ; IrDa_NEC_Rx + 382
    $d
        0x000010de:    0000        ..      DCW    0
        0x000010e0:    20000040    @..     DCD    536870976
        0x000010e4:    cccccccd    ....    DCD    3435973837
        0x000010e8:    4090cccc    ...@    DCD    1083231436
        0x000010ec:    33333333    3333    DCD    858993459
        0x000010f0:    40923333    33.@    DCD    1083323187
        0x000010f4:    b851eb85    ..Q.    DCD    3092376453
        0x000010f8:    40a0c51e    ...@    DCD    1084278046
        0x000010fc:    47ae147b    {..G    DCD    1202590843
        0x00001100:    40a22ae1    .*.@    DCD    1084369633
        0x00001104:    cccccccd    ....    DCD    3435973837
        0x00001108:    40c93ccc    .<.@    DCD    1086930124
        0x0000110c:    33333333    3333    DCD    858993459
        0x00001110:    40cb5733    3W.@    DCD    1087067955
        0x00001114:    635f5249    IR_c    DCD    1667191369
        0x00001118:    253d746e    nt=%    DCD    624784494
        0x0000111c:    43202c64    d, C    DCD    1126181988
        0x00001120:    3d304354    TC0=    DCD    1026573140
        0x00001124:    78323025    %02x    DCD    2016555045
        0x00001128:    5443202c    , CT    DCD    1413685292
        0x0000112c:    253d3143    C1=%    DCD    624767299
        0x00001130:    2c783230    02x,    DCD    746074672
        0x00001134:    43414420     DAC    DCD    1128350752
        0x00001138:    3230253d    =%02    DCD    842016061
        0x0000113c:    44202c78    x, D    DCD    1142959224
        0x00001140:    253d4241    AB=%    DCD    624771649
        0x00001144:    0a783230    02x.    DCD    175649328
        0x00001148:    00000000    ....    DCD    0
    $t
    i.Mark
    Mark
        0x0000114c:    b570        p.      PUSH     {r4-r6,lr}
        0x0000114e:    4d09        .M      LDR      r5,[pc,#36] ; [0x1174] = 0x40058000
        0x00001150:    4604        .F      MOV      r4,r0
        0x00001152:    2108        .!      MOVS     r1,#8
        0x00001154:    4628        (F      MOV      r0,r5
        0x00001156:    f000fa00    ....    BL       PWM_EnableOutput ; 0x155a
        0x0000115a:    f44f700c    O..p    MOV      r0,#0x230
        0x0000115e:    fb14f000    ....    SMULBB   r0,r4,r0
        0x00001162:    f7fffb59    ..Y.    BL       CLK_SysTickDelay ; 0x818
        0x00001166:    4628        (F      MOV      r0,r5
        0x00001168:    e8bd4070    ..p@    POP      {r4-r6,lr}
        0x0000116c:    2108        .!      MOVS     r1,#8
        0x0000116e:    f000b9dd    ....    B.W      PWM_DisableOutput ; 0x152c
    $d
        0x00001172:    0000        ..      DCW    0
        0x00001174:    40058000    ...@    DCD    1074102272
    $t
    i.Open_ADC_Knob
    Open_ADC_Knob
        0x00001178:    b510        ..      PUSH     {r4,lr}
        0x0000117a:    4c22        "L      LDR      r4,[pc,#136] ; [0x1204] = 0x4003fe1c
        0x0000117c:    4620         F      MOV      r0,r4
        0x0000117e:    f7fff937    ..7.    BL       CLK_EnableModuleClock ; 0x3f0
        0x00001182:    f44f22e0    O.."    MOV      r2,#0x70000
        0x00001186:    2100        .!      MOVS     r1,#0
        0x00001188:    4620         F      MOV      r0,r4
        0x0000118a:    f7fffb1d    ....    BL       CLK_SetModuleClock ; 0x7c8
        0x0000118e:    f04f4080    O..@    MOV      r0,#0x40000000
        0x00001192:    6bc1        .k      LDR      r1,[r0,#0x3c]
        0x00001194:    f421617f    !..a    BIC      r1,r1,#0xff0
        0x00001198:    63c1        .c      STR      r1,[r0,#0x3c]
        0x0000119a:    6bc1        .k      LDR      r1,[r0,#0x3c]
        0x0000119c:    f4417188    A..q    ORR      r1,r1,#0x110
        0x000011a0:    63c1        .c      STR      r1,[r0,#0x3c]
        0x000011a2:    f04f2040    O.@     MOV      r0,#0x40004000
        0x000011a6:    6c41        Al      LDR      r1,[r0,#0x44]
        0x000011a8:    f0417100    A..q    ORR      r1,r1,#0x2000000
        0x000011ac:    6441        Ad      STR      r1,[r0,#0x44]
        0x000011ae:    6c41        Al      LDR      r1,[r0,#0x44]
        0x000011b0:    f0416180    A..a    ORR      r1,r1,#0x4000000
        0x000011b4:    6441        Ad      STR      r1,[r0,#0x44]
        0x000011b6:    4c14        .L      LDR      r4,[pc,#80] ; [0x1208] = 0x40043000
        0x000011b8:    2100        .!      MOVS     r1,#0
        0x000011ba:    4620         F      MOV      r0,r4
        0x000011bc:    f7fffb62    ..b.    BL       EADC_Open ; 0x884
        0x000011c0:    2106        .!      MOVS     r1,#6
        0x000011c2:    4620         F      MOV      r0,r4
        0x000011c4:    f7fffb68    ..h.    BL       EADC_SetInternalSampleTime ; 0x898
        0x000011c8:    2200        ."      MOVS     r2,#0
        0x000011ca:    2306        .#      MOVS     r3,#6
        0x000011cc:    4611        .F      MOV      r1,r2
        0x000011ce:    4620         F      MOV      r0,r4
        0x000011d0:    f7fffb48    ..H.    BL       EADC_ConfigSampleModule ; 0x864
        0x000011d4:    2307        .#      MOVS     r3,#7
        0x000011d6:    2200        ."      MOVS     r2,#0
        0x000011d8:    2101        .!      MOVS     r1,#1
        0x000011da:    4620         F      MOV      r0,r4
        0x000011dc:    f7fffb42    ..B.    BL       EADC_ConfigSampleModule ; 0x864
        0x000011e0:    f8540fd0    T...    LDR      r0,[r4,#0xd0]!
        0x000011e4:    f0400001    @...    ORR      r0,r0,#1
        0x000011e8:    6020         `      STR      r0,[r4,#0]
        0x000011ea:    6860        `h      LDR      r0,[r4,#4]
        0x000011ec:    f0400002    @...    ORR      r0,r0,#2
        0x000011f0:    6060        ``      STR      r0,[r4,#4]
        0x000011f2:    2003        .       MOVS     r0,#3
        0x000011f4:    62a0        .b      STR      r0,[r4,#0x28]
        0x000011f6:    f8540d80    T...    LDR      r0,[r4,#-0x80]!
        0x000011fa:    f040000c    @...    ORR      r0,r0,#0xc
        0x000011fe:    6020         `      STR      r0,[r4,#0]
        0x00001200:    bd10        ..      POP      {r4,pc}
    $d
        0x00001202:    0000        ..      DCW    0
        0x00001204:    4003fe1c    ...@    DCD    1074003484
        0x00001208:    40043000    .0.@    DCD    1074016256
    $t
    i.Open_Buzzer
    Open_Buzzer
        0x0000120c:    b510        ..      PUSH     {r4,lr}
        0x0000120e:    f04f4080    O..@    MOV      r0,#0x40000000
        0x00001212:    6c41        Al      LDR      r1,[r0,#0x44]
        0x00001214:    f0216170    !.pa    BIC      r1,r1,#0xf000000
        0x00001218:    6441        Ad      STR      r1,[r0,#0x44]
        0x0000121a:    6c41        Al      LDR      r1,[r0,#0x44]
        0x0000121c:    f04161c0    A..a    ORR      r1,r1,#0x6000000
        0x00001220:    6441        Ad      STR      r1,[r0,#0x44]
        0x00001222:    4c07        .L      LDR      r4,[pc,#28] ; [0x1240] = 0xa2100011
        0x00001224:    4620         F      MOV      r0,r4
        0x00001226:    f7fff8e3    ....    BL       CLK_EnableModuleClock ; 0x3f0
        0x0000122a:    2200        ."      MOVS     r2,#0
        0x0000122c:    2102        .!      MOVS     r1,#2
        0x0000122e:    4620         F      MOV      r0,r4
        0x00001230:    f7fffaca    ....    BL       CLK_SetModuleClock ; 0x7c8
        0x00001234:    e8bd4010    ...@    POP      {r4,lr}
        0x00001238:    4802        .H      LDR      r0,[pc,#8] ; [0x1244] = 0x8000011
        0x0000123a:    f000bae1    ....    B.W      SYS_ResetModule ; 0x1800
    $d
        0x0000123e:    0000        ..      DCW    0
        0x00001240:    a2100011    ....    DCD    2718957585
        0x00001244:    08000011    ....    DCD    134217745
    $t
    i.Open_SPI_Flash
    Open_SPI_Flash
        0x00001248:    b538        8.      PUSH     {r3-r5,lr}
        0x0000124a:    f04f4080    O..@    MOV      r0,#0x40000000
        0x0000124e:    6cc1        .l      LDR      r1,[r0,#0x4c]
        0x00001250:    b289        ..      UXTH     r1,r1
        0x00001252:    64c1        .d      STR      r1,[r0,#0x4c]
        0x00001254:    6cc1        .l      LDR      r1,[r0,#0x4c]
        0x00001256:    4a0f        .J      LDR      r2,[pc,#60] ; [0x1294] = 0x22220000
        0x00001258:    4311        .C      ORRS     r1,r1,r2
        0x0000125a:    64c1        .d      STR      r1,[r0,#0x4c]
        0x0000125c:    4c0e        .L      LDR      r4,[pc,#56] ; [0x1298] = 0x6660000e
        0x0000125e:    4620         F      MOV      r0,r4
        0x00001260:    f7fff8c6    ....    BL       CLK_EnableModuleClock ; 0x3f0
        0x00001264:    2200        ."      MOVS     r2,#0
        0x00001266:    2180        .!      MOVS     r1,#0x80
        0x00001268:    4620         F      MOV      r0,r4
        0x0000126a:    f7fffaad    ....    BL       CLK_SetModuleClock ; 0x7c8
        0x0000126e:    480b        .H      LDR      r0,[pc,#44] ; [0x129c] = 0x1e8480
        0x00001270:    4c0b        .L      LDR      r4,[pc,#44] ; [0x12a0] = 0x40062000
        0x00001272:    9000        ..      STR      r0,[sp,#0]
        0x00001274:    2320         #      MOVS     r3,#0x20
        0x00001276:    2204        ."      MOVS     r2,#4
        0x00001278:    2100        .!      MOVS     r1,#0
        0x0000127a:    4620         F      MOV      r0,r4
        0x0000127c:    f000f9a8    ....    BL       SPI_Open ; 0x15d0
        0x00001280:    4620         F      MOV      r0,r4
        0x00001282:    f000f99f    ....    BL       SPI_DisableAutoSS ; 0x15c4
        0x00001286:    68a1        .h      LDR      r1,[r4,#8]
        0x00001288:    f0210108    !...    BIC      r1,r1,#8
        0x0000128c:    f0410105    A...    ORR      r1,r1,#5
        0x00001290:    60a1        .`      STR      r1,[r4,#8]
        0x00001292:    bd38        8.      POP      {r3-r5,pc}
    $d
        0x00001294:    22220000    ..""    DCD    572653568
        0x00001298:    6660000e    ..`f    DCD    1717567502
        0x0000129c:    001e8480    ....    DCD    2000000
        0x000012a0:    40062000    . .@    DCD    1074143232
    $t
    i.Open_Seven_Segment
    Open_Seven_Segment
        0x000012a4:    b570        p.      PUSH     {r4-r6,lr}
        0x000012a6:    2201        ."      MOVS     r2,#1
        0x000012a8:    4d25        %M      LDR      r5,[pc,#148] ; [0x1340] = 0x40004040
        0x000012aa:    02d4        ..      LSLS     r4,r2,#11
        0x000012ac:    4621        !F      MOV      r1,r4
        0x000012ae:    4628        (F      MOV      r0,r5
        0x000012b0:    f7fffb00    ....    BL       GPIO_SetMode ; 0x8b4
        0x000012b4:    2201        ."      MOVS     r2,#1
        0x000012b6:    0311        ..      LSLS     r1,r2,#12
        0x000012b8:    4628        (F      MOV      r0,r5
        0x000012ba:    f7fffafb    ....    BL       GPIO_SetMode ; 0x8b4
        0x000012be:    2201        ."      MOVS     r2,#1
        0x000012c0:    0351        Q.      LSLS     r1,r2,#13
        0x000012c2:    4628        (F      MOV      r0,r5
        0x000012c4:    f7fffaf6    ....    BL       GPIO_SetMode ; 0x8b4
        0x000012c8:    2201        ."      MOVS     r2,#1
        0x000012ca:    0391        ..      LSLS     r1,r2,#14
        0x000012cc:    4628        (F      MOV      r0,r5
        0x000012ce:    f7fffaf1    ....    BL       GPIO_SetMode ; 0x8b4
        0x000012d2:    2201        ."      MOVS     r2,#1
        0x000012d4:    03d1        ..      LSLS     r1,r2,#15
        0x000012d6:    4628        (F      MOV      r0,r5
        0x000012d8:    f7fffaec    ....    BL       GPIO_SetMode ; 0x8b4
        0x000012dc:    2201        ."      MOVS     r2,#1
        0x000012de:    2120         !      MOVS     r1,#0x20
        0x000012e0:    4628        (F      MOV      r0,r5
        0x000012e2:    f7fffae7    ....    BL       GPIO_SetMode ; 0x8b4
        0x000012e6:    4621        !F      MOV      r1,r4
        0x000012e8:    4c15        .L      LDR      r4,[pc,#84] ; [0x1340] = 0x40004040
        0x000012ea:    2201        ."      MOVS     r2,#1
        0x000012ec:    3480        .4      ADDS     r4,r4,#0x80
        0x000012ee:    4620         F      MOV      r0,r4
        0x000012f0:    f7fffae0    ....    BL       GPIO_SetMode ; 0x8b4
        0x000012f4:    2201        ."      MOVS     r2,#1
        0x000012f6:    2104        .!      MOVS     r1,#4
        0x000012f8:    4812        .H      LDR      r0,[pc,#72] ; [0x1344] = 0x40004140
        0x000012fa:    f7fffadb    ....    BL       GPIO_SetMode ; 0x8b4
        0x000012fe:    2201        ."      MOVS     r2,#1
        0x00001300:    0215        ..      LSLS     r5,r2,#8
        0x00001302:    4629        )F      MOV      r1,r5
        0x00001304:    4620         F      MOV      r0,r4
        0x00001306:    f7fffad5    ....    BL       GPIO_SetMode ; 0x8b4
        0x0000130a:    480d        .H      LDR      r0,[pc,#52] ; [0x1340] = 0x40004040
        0x0000130c:    2201        ."      MOVS     r2,#1
        0x0000130e:    4629        )F      MOV      r1,r5
        0x00001310:    3040        @0      ADDS     r0,r0,#0x40
        0x00001312:    f7fffacf    ....    BL       GPIO_SetMode ; 0x8b4
        0x00001316:    490c        .I      LDR      r1,[pc,#48] ; [0x1348] = 0x4000486c
        0x00001318:    2001        .       MOVS     r0,#1
        0x0000131a:    6008        .`      STR      r0,[r1,#0]
        0x0000131c:    1d09        ..      ADDS     r1,r1,#4
        0x0000131e:    6008        .`      STR      r0,[r1,#0]
        0x00001320:    1d09        ..      ADDS     r1,r1,#4
        0x00001322:    6008        .`      STR      r0,[r1,#0]
        0x00001324:    1d09        ..      ADDS     r1,r1,#4
        0x00001326:    6008        .`      STR      r0,[r1,#0]
        0x00001328:    1d09        ..      ADDS     r1,r1,#4
        0x0000132a:    6008        .`      STR      r0,[r1,#0]
        0x0000132c:    4906        .I      LDR      r1,[pc,#24] ; [0x1348] = 0x4000486c
        0x0000132e:    3918        .9      SUBS     r1,r1,#0x18
        0x00001330:    6008        .`      STR      r0,[r1,#0]
        0x00001332:    4905        .I      LDR      r1,[pc,#20] ; [0x1348] = 0x4000486c
        0x00001334:    3180        .1      ADDS     r1,r1,#0x80
        0x00001336:    6008        .`      STR      r0,[r1,#0]
        0x00001338:    4903        .I      LDR      r1,[pc,#12] ; [0x1348] = 0x4000486c
        0x0000133a:    31dc        .1      ADDS     r1,r1,#0xdc
        0x0000133c:    6008        .`      STR      r0,[r1,#0]
        0x0000133e:    bd70        p.      POP      {r4-r6,pc}
    $d
        0x00001340:    40004040    @@.@    DCD    1073758272
        0x00001344:    40004140    @A.@    DCD    1073758528
        0x00001348:    4000486c    lH.@    DCD    1073760364
    $t
    i.PWM0P2_IRQHandler
    PWM0P2_IRQHandler
        0x0000134c:    4807        .H      LDR      r0,[pc,#28] ; [0x136c] = 0x40058000
        0x0000134e:    b510        ..      PUSH     {r4,lr}
        0x00001350:    f8d01238    ..8.    LDR      r1,[r0,#0x238]
        0x00001354:    f64f72ff    O..r    MOV      r2,#0xffff
        0x00001358:    1a54        T.      SUBS     r4,r2,r1
        0x0000135a:    1582        ..      ASRS     r2,r0,#22
        0x0000135c:    2105        .!      MOVS     r1,#5
        0x0000135e:    f000f807    ....    BL       PWM_ClearCaptureIntFlag ; 0x1370
        0x00001362:    4620         F      MOV      r0,r4
        0x00001364:    e8bd4010    ...@    POP      {r4,lr}
        0x00001368:    f7ffbd4c    ..L.    B.W      IrDa_NEC_Rx ; 0xe04
    $d
        0x0000136c:    40058000    ...@    DCD    1074102272
    $t
    i.PWM_ClearCaptureIntFlag
    PWM_ClearCaptureIntFlag
        0x00001370:    408a        .@      LSLS     r2,r2,r1
        0x00001372:    f8c02254    ..T"    STR      r2,[r0,#0x254]
        0x00001376:    4770        pG      BX       lr
    i.PWM_ConfigCaptureChannel
    PWM_ConfigCaptureChannel
        0x00001378:    e92d47f0    -..G    PUSH     {r4-r10,lr}
        0x0000137c:    4605        .F      MOV      r5,r0
        0x0000137e:    2401        .$      MOVS     r4,#1
        0x00001380:    460e        .F      MOV      r6,r1
        0x00001382:    07a0        ..      LSLS     r0,r4,#30
        0x00001384:    4925        %I      LDR      r1,[pc,#148] ; [0x141c] = 0x40058000
        0x00001386:    f8d00218    ....    LDR      r0,[r0,#0x218]
        0x0000138a:    4691        .F      MOV      r9,r2
        0x0000138c:    f64f7aff    O..z    MOV      r10,#0xffff
        0x00001390:    428d        .B      CMP      r5,r1
        0x00001392:    d102        ..      BNE      0x139a ; PWM_ConfigCaptureChannel + 34
        0x00001394:    f0000001    ....    AND      r0,r0,#1
        0x00001398:    e001        ..      B        0x139e ; PWM_ConfigCaptureChannel + 38
        0x0000139a:    f0000002    ....    AND      r0,r0,#2
        0x0000139e:    b3c8        ..      CBZ      r0,0x1414 ; PWM_ConfigCaptureChannel + 156
        0x000013a0:    f000fb28    ..(.    BL       SystemCoreClockUpdate ; 0x19f4
        0x000013a4:    481e        .H      LDR      r0,[pc,#120] ; [0x1420] = 0x20000000
        0x000013a6:    6800        .h      LDR      r0,[r0,#0]
        0x000013a8:    f44f717a    O.zq    MOV      r1,#0x3e8
        0x000013ac:    fbb0f3f1    ....    UDIV     r3,r0,r1
        0x000013b0:    f44f5880    O..X    MOV      r8,#0x1000
        0x000013b4:    481b        .H      LDR      r0,[pc,#108] ; [0x1424] = 0xf4240
        0x000013b6:    4360        `C      MULS     r0,r4,r0
        0x000013b8:    fbb0f0f3    ....    UDIV     r0,r0,r3
        0x000013bc:    4548        HE      CMP      r0,r9
        0x000013be:    d20e        ..      BCS      0x13de ; PWM_ConfigCaptureChannel + 102
        0x000013c0:    4544        DE      CMP      r4,r8
        0x000013c2:    d00c        ..      BEQ      0x13de ; PWM_ConfigCaptureChannel + 102
        0x000013c4:    1c61        a.      ADDS     r1,r4,#1
        0x000013c6:    f6435c09    C..\    MOV      r12,#0x3d09
        0x000013ca:    fb00f703    ....    MUL      r7,r0,r3
        0x000013ce:    fb01fc0c    ....    MUL      r12,r1,r12
        0x000013d2:    ebb71f8c    ....    CMP      r7,r12,LSL #6
        0x000013d6:    d202        ..      BCS      0x13de ; PWM_ConfigCaptureChannel + 102
        0x000013d8:    b28c        ..      UXTH     r4,r1
        0x000013da:    4544        DE      CMP      r4,r8
        0x000013dc:    d9ea        ..      BLS      0x13b4 ; PWM_ConfigCaptureChannel + 60
        0x000013de:    1e64        d.      SUBS     r4,r4,#1
        0x000013e0:    0872        r.      LSRS     r2,r6,#1
        0x000013e2:    eb050282    ....    ADD      r2,r5,r2,LSL #2
        0x000013e6:    b2a1        ..      UXTH     r1,r4
        0x000013e8:    6151        Qa      STR      r1,[r2,#0x14]
        0x000013ea:    686a        jh      LDR      r2,[r5,#4]
        0x000013ec:    0071        q.      LSLS     r1,r6,#1
        0x000013ee:    2303        .#      MOVS     r3,#3
        0x000013f0:    408b        .@      LSLS     r3,r3,r1
        0x000013f2:    439a        .C      BICS     r2,r2,r3
        0x000013f4:    2301        .#      MOVS     r3,#1
        0x000013f6:    408b        .@      LSLS     r3,r3,r1
        0x000013f8:    431a        .C      ORRS     r2,r2,r3
        0x000013fa:    606a        j`      STR      r2,[r5,#4]
        0x000013fc:    6869        ih      LDR      r1,[r5,#4]
        0x000013fe:    f44f3280    O..2    MOV      r2,#0x10000
        0x00001402:    40b2        .@      LSLS     r2,r2,r6
        0x00001404:    4391        .C      BICS     r1,r1,r2
        0x00001406:    6069        i`      STR      r1,[r5,#4]
        0x00001408:    eb050186    ....    ADD      r1,r5,r6,LSL #2
        0x0000140c:    f8c1a030    ..0.    STR      r10,[r1,#0x30]
        0x00001410:    e8bd87f0    ....    POP      {r4-r10,pc}
        0x00001414:    e7ff        ..      B        0x1416 ; PWM_ConfigCaptureChannel + 158
        0x00001416:    f7fff935    ..5.    BL       CLK_GetPLLClockFreq ; 0x684
        0x0000141a:    e7c5        ..      B        0x13a8 ; PWM_ConfigCaptureChannel + 48
    $d
        0x0000141c:    40058000    ...@    DCD    1074102272
        0x00001420:    20000000    ...     DCD    536870912
        0x00001424:    000f4240    @B..    DCD    1000000
    $t
    i.PWM_ConfigOutputChannel
    PWM_ConfigOutputChannel
        0x00001428:    e92d5ff0    -.._    PUSH     {r4-r12,lr}
        0x0000142c:    4604        .F      MOV      r4,r0
        0x0000142e:    460e        .F      MOV      r6,r1
        0x00001430:    2501        .%      MOVS     r5,#1
        0x00001432:    483c        <H      LDR      r0,[pc,#240] ; [0x1524] = 0x40058000
        0x00001434:    07a9        ..      LSLS     r1,r5,#30
        0x00001436:    4284        .B      CMP      r4,r0
        0x00001438:    f8d10218    ....    LDR      r0,[r1,#0x218]
        0x0000143c:    4690        .F      MOV      r8,r2
        0x0000143e:    4699        .F      MOV      r9,r3
        0x00001440:    f64f77ff    O..w    MOV      r7,#0xffff
        0x00001444:    d102        ..      BNE      0x144c ; PWM_ConfigOutputChannel + 36
        0x00001446:    f0000001    ....    AND      r0,r0,#1
        0x0000144a:    e001        ..      B        0x1450 ; PWM_ConfigOutputChannel + 40
        0x0000144c:    f0000002    ....    AND      r0,r0,#2
        0x00001450:    b178        x.      CBZ      r0,0x1472 ; PWM_ConfigOutputChannel + 74
        0x00001452:    f000facf    ....    BL       SystemCoreClockUpdate ; 0x19f4
        0x00001456:    4834        4H      LDR      r0,[pc,#208] ; [0x1528] = 0x20000000
        0x00001458:    6801        .h      LDR      r1,[r0,#0]
        0x0000145a:    f44f3c80    O..<    MOV      r12,#0x10000
        0x0000145e:    fbb1f2f8    ....    UDIV     r2,r1,r8
        0x00001462:    f64078ff    @..x    MOV      r8,#0xfff
        0x00001466:    fbb2f0f5    ....    UDIV     r0,r2,r5
        0x0000146a:    4560        `E      CMP      r0,r12
        0x0000146c:    d805        ..      BHI      0x147a ; PWM_ConfigOutputChannel + 82
        0x0000146e:    b287        ..      UXTH     r7,r0
        0x00001470:    e007        ..      B        0x1482 ; PWM_ConfigOutputChannel + 90
        0x00001472:    f7fff907    ....    BL       CLK_GetPLLClockFreq ; 0x684
        0x00001476:    4601        .F      MOV      r1,r0
        0x00001478:    e7ef        ..      B        0x145a ; PWM_ConfigOutputChannel + 50
        0x0000147a:    1c6d        m.      ADDS     r5,r5,#1
        0x0000147c:    b2ad        ..      UXTH     r5,r5
        0x0000147e:    4545        EE      CMP      r5,r8
        0x00001480:    d3f1        ..      BCC      0x1466 ; PWM_ConfigOutputChannel + 62
        0x00001482:    fb05f007    ....    MUL      r0,r5,r7
        0x00001486:    fbb1faf0    ....    UDIV     r10,r1,r0
        0x0000148a:    1e6d        m.      SUBS     r5,r5,#1
        0x0000148c:    0871        q.      LSRS     r1,r6,#1
        0x0000148e:    eb040181    ....    ADD      r1,r4,r1,LSL #2
        0x00001492:    b2a8        ..      UXTH     r0,r5
        0x00001494:    6148        Ha      STR      r0,[r1,#0x14]
        0x00001496:    6860        `h      LDR      r0,[r4,#4]
        0x00001498:    0071        q.      LSLS     r1,r6,#1
        0x0000149a:    2203        ."      MOVS     r2,#3
        0x0000149c:    408a        .@      LSLS     r2,r2,r1
        0x0000149e:    f04f0b01    O...    MOV      r11,#1
        0x000014a2:    4390        .C      BICS     r0,r0,r2
        0x000014a4:    fa0bf801    ....    LSL      r8,r11,r1
        0x000014a8:    ea400008    @...    ORR      r0,r0,r8
        0x000014ac:    6060        ``      STR      r0,[r4,#4]
        0x000014ae:    6860        `h      LDR      r0,[r4,#4]
        0x000014b0:    fa0cfc06    ....    LSL      r12,r12,r6
        0x000014b4:    ea20000c     ...    BIC      r0,r0,r12
        0x000014b8:    6060        ``      STR      r0,[r4,#4]
        0x000014ba:    1e7f        ..      SUBS     r7,r7,#1
        0x000014bc:    eb040286    ....    ADD      r2,r4,r6,LSL #2
        0x000014c0:    b2bb        ..      UXTH     r3,r7
        0x000014c2:    6313        .c      STR      r3,[r2,#0x30]
        0x000014c4:    2710        .'      MOVS     r7,#0x10
        0x000014c6:    2002        .       MOVS     r0,#2
        0x000014c8:    eb070646    ..F.    ADD      r6,r7,r6,LSL #1
        0x000014cc:    f04f1503    O...    MOV      r5,#0x30003
        0x000014d0:    40b0        .@      LSLS     r0,r0,r6
        0x000014d2:    408d        .@      LSLS     r5,r5,r1
        0x000014d4:    f1b90f00    ....    CMP      r9,#0
        0x000014d8:    d011        ..      BEQ      0x14fe ; PWM_ConfigOutputChannel + 214
        0x000014da:    1c5b        [.      ADDS     r3,r3,#1
        0x000014dc:    fb09f903    ....    MUL      r9,r9,r3
        0x000014e0:    2164        d!      MOVS     r1,#0x64
        0x000014e2:    fbb9f1f1    ....    UDIV     r1,r9,r1
        0x000014e6:    1e49        I.      SUBS     r1,r1,#1
        0x000014e8:    6511        .e      STR      r1,[r2,#0x50]
        0x000014ea:    f8541fb0    T...    LDR      r1,[r4,#0xb0]!
        0x000014ee:    43a9        .C      BICS     r1,r1,r5
        0x000014f0:    6021        !`      STR      r1,[r4,#0]
        0x000014f2:    6822        "h      LDR      r2,[r4,#0]
        0x000014f4:    fa0bf106    ....    LSL      r1,r11,r6
        0x000014f8:    430a        .C      ORRS     r2,r2,r1
        0x000014fa:    6022        "`      STR      r2,[r4,#0]
        0x000014fc:    e009        ..      B        0x1512 ; PWM_ConfigOutputChannel + 234
        0x000014fe:    2100        .!      MOVS     r1,#0
        0x00001500:    6511        .e      STR      r1,[r2,#0x50]
        0x00001502:    f8541fb0    T...    LDR      r1,[r4,#0xb0]!
        0x00001506:    43a9        .C      BICS     r1,r1,r5
        0x00001508:    6021        !`      STR      r1,[r4,#0]
        0x0000150a:    6821        !h      LDR      r1,[r4,#0]
        0x0000150c:    ea410108    A...    ORR      r1,r1,r8
        0x00001510:    6021        !`      STR      r1,[r4,#0]
        0x00001512:    6861        ah      LDR      r1,[r4,#4]
        0x00001514:    43a9        .C      BICS     r1,r1,r5
        0x00001516:    6061        a`      STR      r1,[r4,#4]
        0x00001518:    6861        ah      LDR      r1,[r4,#4]
        0x0000151a:    4301        .C      ORRS     r1,r1,r0
        0x0000151c:    6061        a`      STR      r1,[r4,#4]
        0x0000151e:    4650        PF      MOV      r0,r10
        0x00001520:    e8bd9ff0    ....    POP      {r4-r12,pc}
    $d
        0x00001524:    40058000    ...@    DCD    1074102272
        0x00001528:    20000000    ...     DCD    536870912
    $t
    i.PWM_DisableOutput
    PWM_DisableOutput
        0x0000152c:    f8502fd8    P../    LDR      r2,[r0,#0xd8]!
        0x00001530:    438a        .C      BICS     r2,r2,r1
        0x00001532:    6002        .`      STR      r2,[r0,#0]
        0x00001534:    4770        pG      BX       lr
    i.PWM_EnableCapture
    PWM_EnableCapture
        0x00001536:    f5007000    ...p    ADD      r0,r0,#0x200
        0x0000153a:    6802        .h      LDR      r2,[r0,#0]
        0x0000153c:    ea420201    B...    ORR      r2,r2,r1
        0x00001540:    6002        .`      STR      r2,[r0,#0]
        0x00001542:    6842        Bh      LDR      r2,[r0,#4]
        0x00001544:    ea420201    B...    ORR      r2,r2,r1
        0x00001548:    6042        B`      STR      r2,[r0,#4]
        0x0000154a:    4770        pG      BX       lr
    i.PWM_EnableCaptureInt
    PWM_EnableCaptureInt
        0x0000154c:    f8d03250    ..P2    LDR      r3,[r0,#0x250]
        0x00001550:    408a        .@      LSLS     r2,r2,r1
        0x00001552:    4313        .C      ORRS     r3,r3,r2
        0x00001554:    f8c03250    ..P2    STR      r3,[r0,#0x250]
        0x00001558:    4770        pG      BX       lr
    i.PWM_EnableOutput
    PWM_EnableOutput
        0x0000155a:    f8502fd8    P../    LDR      r2,[r0,#0xd8]!
        0x0000155e:    430a        .C      ORRS     r2,r2,r1
        0x00001560:    6002        .`      STR      r2,[r0,#0]
        0x00001562:    4770        pG      BX       lr
    i.PWM_LED
    PWM_LED
        0x00001564:    e92d47f0    -..G    PUSH     {r4-r10,lr}
        0x00001568:    4681        .F      MOV      r9,r0
        0x0000156a:    a808        ..      ADD      r0,sp,#0x20
        0x0000156c:    461c        .F      MOV      r4,r3
        0x0000156e:    e8b00160    ..`.    LDM      r0!,{r5,r6,r8}
        0x00001572:    4613        .F      MOV      r3,r2
        0x00001574:    4f0d        .O      LDR      r7,[pc,#52] ; [0x15ac] = 0x40059000
        0x00001576:    460a        .F      MOV      r2,r1
        0x00001578:    2100        .!      MOVS     r1,#0
        0x0000157a:    4638        8F      MOV      r0,r7
        0x0000157c:    f7ffff54    ..T.    BL       PWM_ConfigOutputChannel ; 0x1428
        0x00001580:    462b        +F      MOV      r3,r5
        0x00001582:    4622        "F      MOV      r2,r4
        0x00001584:    2101        .!      MOVS     r1,#1
        0x00001586:    4638        8F      MOV      r0,r7
        0x00001588:    f7ffff4e    ..N.    BL       PWM_ConfigOutputChannel ; 0x1428
        0x0000158c:    4643        CF      MOV      r3,r8
        0x0000158e:    4632        2F      MOV      r2,r6
        0x00001590:    2102        .!      MOVS     r1,#2
        0x00001592:    4638        8F      MOV      r0,r7
        0x00001594:    f7ffff48    ..H.    BL       PWM_ConfigOutputChannel ; 0x1428
        0x00001598:    4649        IF      MOV      r1,r9
        0x0000159a:    4638        8F      MOV      r0,r7
        0x0000159c:    f7ffffdd    ....    BL       PWM_EnableOutput ; 0x155a
        0x000015a0:    4649        IF      MOV      r1,r9
        0x000015a2:    4638        8F      MOV      r0,r7
        0x000015a4:    e8bd47f0    ...G    POP      {r4-r10,lr}
        0x000015a8:    f000b802    ....    B.W      PWM_Start ; 0x15b0
    $d
        0x000015ac:    40059000    ...@    DCD    1074106368
    $t
    i.PWM_Start
    PWM_Start
        0x000015b0:    6a02        .j      LDR      r2,[r0,#0x20]
        0x000015b2:    430a        .C      ORRS     r2,r2,r1
        0x000015b4:    6202        .b      STR      r2,[r0,#0x20]
        0x000015b6:    4770        pG      BX       lr
    i.SPACE
    SPACE
        0x000015b8:    f44f710c    O..q    MOV      r1,#0x230
        0x000015bc:    fb10f001    ....    SMULBB   r0,r0,r1
        0x000015c0:    f7ffb92a    ..*.    B        CLK_SysTickDelay ; 0x818
    i.SPI_DisableAutoSS
    SPI_DisableAutoSS
        0x000015c4:    6881        .h      LDR      r1,[r0,#8]
        0x000015c6:    f0210109    !...    BIC      r1,r1,#9
        0x000015ca:    6081        .`      STR      r1,[r0,#8]
        0x000015cc:    4770        pG      BX       lr
        0x000015ce:    0000        ..      MOVS     r0,r0
    i.SPI_Open
    SPI_Open
        0x000015d0:    e92d47f0    -..G    PUSH     {r4-r10,lr}
        0x000015d4:    f8dfa1b4    ....    LDR      r10,[pc,#436] ; [0x178c] = 0x40061000
        0x000015d8:    9e08        ..      LDR      r6,[sp,#0x20]
        0x000015da:    4604        .F      MOV      r4,r0
        0x000015dc:    4688        .F      MOV      r8,r1
        0x000015de:    4691        .F      MOV      r9,r2
        0x000015e0:    461f        .F      MOV      r7,r3
        0x000015e2:    4550        PE      CMP      r0,r10
        0x000015e4:    d002        ..      BEQ      0x15ec ; SPI_Open + 28
        0x000015e6:    486a        jH      LDR      r0,[pc,#424] ; [0x1790] = 0x40062000
        0x000015e8:    4284        .B      CMP      r4,r0
        0x000015ea:    d103        ..      BNE      0x15f4 ; SPI_Open + 36
        0x000015ec:    6e20         n      LDR      r0,[r4,#0x60]
        0x000015ee:    f0200001     ...    BIC      r0,r0,#1
        0x000015f2:    6620         f      STR      r0,[r4,#0x60]
        0x000015f4:    2f20         /      CMP      r7,#0x20
        0x000015f6:    d100        ..      BNE      0x15fa ; SPI_Open + 42
        0x000015f8:    2700        .'      MOVS     r7,#0
        0x000015fa:    f7feffe3    ....    BL       CLK_GetHCLKFreq ; 0x5c4
        0x000015fe:    4605        .F      MOV      r5,r0
        0x00001600:    2200        ."      MOVS     r2,#0
        0x00001602:    4964        dI      LDR      r1,[pc,#400] ; [0x1794] = 0x40060000
        0x00001604:    f04f4080    O..@    MOV      r0,#0x40000000
        0x00001608:    f1b80f00    ....    CMP      r8,#0
        0x0000160c:    d012        ..      BEQ      0x1634 ; SPI_Open + 100
        0x0000160e:    60a2        .`      STR      r2,[r4,#8]
        0x00001610:    ea482307    H..#    ORR      r3,r8,r7,LSL #8
        0x00001614:    ea430309    C...    ORR      r3,r3,r9
        0x00001618:    f0430301    C...    ORR      r3,r3,#1
        0x0000161c:    6023        #`      STR      r3,[r4,#0]
        0x0000161e:    6062        b`      STR      r2,[r4,#4]
        0x00001620:    428c        .B      CMP      r4,r1
        0x00001622:    d170        p.      BNE      0x1706 ; SPI_Open + 310
        0x00001624:    f5007004    ...p    ADD      r0,r0,#0x210
        0x00001628:    6881        .h      LDR      r1,[r0,#8]
        0x0000162a:    f021010c    !...    BIC      r1,r1,#0xc
        0x0000162e:    f0410108    A...    ORR      r1,r1,#8
        0x00001632:    e0a4        ..      B        0x177e ; SPI_Open + 430
        0x00001634:    4690        .F      MOV      r8,r2
        0x00001636:    60a2        .`      STR      r2,[r4,#8]
        0x00001638:    ea422207    B.."    ORR      r2,r2,r7,LSL #8
        0x0000163c:    ea420209    B...    ORR      r2,r2,r9
        0x00001640:    f0420201    B...    ORR      r2,r2,#1
        0x00001644:    6022        "`      STR      r2,[r4,#0]
        0x00001646:    42ae        .B      CMP      r6,r5
        0x00001648:    d317        ..      BCC      0x167a ; SPI_Open + 170
        0x0000164a:    428c        .B      CMP      r4,r1
        0x0000164c:    d106        ..      BNE      0x165c ; SPI_Open + 140
        0x0000164e:    f8d02218    ..."    LDR      r2,[r0,#0x218]
        0x00001652:    f022020c    "...    BIC      r2,r2,#0xc
        0x00001656:    f0420208    B...    ORR      r2,r2,#8
        0x0000165a:    e00c        ..      B        0x1676 ; SPI_Open + 166
        0x0000165c:    f8d02218    ..."    LDR      r2,[r0,#0x218]
        0x00001660:    4554        TE      CMP      r4,r10
        0x00001662:    d104        ..      BNE      0x166e ; SPI_Open + 158
        0x00001664:    f0220230    ".0.    BIC      r2,r2,#0x30
        0x00001668:    f0420220    B. .    ORR      r2,r2,#0x20
        0x0000166c:    e003        ..      B        0x1676 ; SPI_Open + 166
        0x0000166e:    f02202c0    "...    BIC      r2,r2,#0xc0
        0x00001672:    f0420280    B...    ORR      r2,r2,#0x80
        0x00001676:    f8c02218    ..."    STR      r2,[r0,#0x218]
        0x0000167a:    4a47        GJ      LDR      r2,[pc,#284] ; [0x1798] = 0xb71b00
        0x0000167c:    4b47        GK      LDR      r3,[pc,#284] ; [0x179c] = 0x1518000
        0x0000167e:    428c        .B      CMP      r4,r1
        0x00001680:    d10f        ..      BNE      0x16a2 ; SPI_Open + 210
        0x00001682:    f8d01218    ....    LDR      r1,[r0,#0x218]
        0x00001686:    f0110f0c    ....    TST      r1,#0xc
        0x0000168a:    d03d        =.      BEQ      0x1708 ; SPI_Open + 312
        0x0000168c:    f8d01218    ....    LDR      r1,[r0,#0x218]
        0x00001690:    f3c10181    ....    UBFX     r1,r1,#2,#2
        0x00001694:    2901        .)      CMP      r1,#1
        0x00001696:    d039        9.      BEQ      0x170c ; SPI_Open + 316
        0x00001698:    f8d01218    ....    LDR      r1,[r0,#0x218]
        0x0000169c:    f3c10181    ....    UBFX     r1,r1,#2,#2
        0x000016a0:    e026        &.      B        0x16f0 ; SPI_Open + 288
        0x000016a2:    f8d01218    ....    LDR      r1,[r0,#0x218]
        0x000016a6:    4554        TE      CMP      r4,r10
        0x000016a8:    d115        ..      BNE      0x16d6 ; SPI_Open + 262
        0x000016aa:    f0110f30    ..0.    TST      r1,#0x30
        0x000016ae:    d02b        +.      BEQ      0x1708 ; SPI_Open + 312
        0x000016b0:    f8d01218    ....    LDR      r1,[r0,#0x218]
        0x000016b4:    f3c11101    ....    UBFX     r1,r1,#4,#2
        0x000016b8:    2901        .)      CMP      r1,#1
        0x000016ba:    d027        '.      BEQ      0x170c ; SPI_Open + 316
        0x000016bc:    f8d01218    ....    LDR      r1,[r0,#0x218]
        0x000016c0:    f3c11101    ....    UBFX     r1,r1,#4,#2
        0x000016c4:    2902        .)      CMP      r1,#2
        0x000016c6:    d115        ..      BNE      0x16f4 ; SPI_Open + 292
        0x000016c8:    f8d00210    ....    LDR      r0,[r0,#0x210]
        0x000016cc:    0600        ..      LSLS     r0,r0,#24
        0x000016ce:    2800        .(      CMP      r0,#0
        0x000016d0:    da23        #.      BGE      0x171a ; SPI_Open + 330
        0x000016d2:    0868        h.      LSRS     r0,r5,#1
        0x000016d4:    e00f        ..      B        0x16f6 ; SPI_Open + 294
        0x000016d6:    f0110fc0    ....    TST      r1,#0xc0
        0x000016da:    d015        ..      BEQ      0x1708 ; SPI_Open + 312
        0x000016dc:    f8d01218    ....    LDR      r1,[r0,#0x218]
        0x000016e0:    f3c11181    ....    UBFX     r1,r1,#6,#2
        0x000016e4:    2901        .)      CMP      r1,#1
        0x000016e6:    d011        ..      BEQ      0x170c ; SPI_Open + 316
        0x000016e8:    f8d01218    ....    LDR      r1,[r0,#0x218]
        0x000016ec:    f3c11181    ....    UBFX     r1,r1,#6,#2
        0x000016f0:    2902        .)      CMP      r1,#2
        0x000016f2:    d00e        ..      BEQ      0x1712 ; SPI_Open + 322
        0x000016f4:    4618        .F      MOV      r0,r3
        0x000016f6:    42ae        .B      CMP      r6,r5
        0x000016f8:    d201        ..      BCS      0x16fe ; SPI_Open + 302
        0x000016fa:    4286        .B      CMP      r6,r0
        0x000016fc:    d30f        ..      BCC      0x171e ; SPI_Open + 334
        0x000016fe:    f8c48004    ....    STR      r8,[r4,#4]
        0x00001702:    e8bd87f0    ....    POP      {r4-r10,pc}
        0x00001706:    e026        &.      B        0x1756 ; SPI_Open + 390
        0x00001708:    4610        .F      MOV      r0,r2
        0x0000170a:    e7f4        ..      B        0x16f6 ; SPI_Open + 294
        0x0000170c:    f7feff62    ..b.    BL       CLK_GetPLLClockFreq ; 0x5d4
        0x00001710:    e7f1        ..      B        0x16f6 ; SPI_Open + 294
        0x00001712:    f8d00210    ....    LDR      r0,[r0,#0x210]
        0x00001716:    0640        @.      LSLS     r0,r0,#25
        0x00001718:    e7d9        ..      B        0x16ce ; SPI_Open + 254
        0x0000171a:    4628        (F      MOV      r0,r5
        0x0000171c:    e7eb        ..      B        0x16f6 ; SPI_Open + 294
        0x0000171e:    b15e        ^.      CBZ      r6,0x1738 ; SPI_Open + 360
        0x00001720:    eb000180    ....    ADD      r1,r0,r0,LSL #2
        0x00001724:    0049        I.      LSLS     r1,r1,#1
        0x00001726:    fbb1f1f6    ....    UDIV     r1,r1,r6
        0x0000172a:    1d49        I.      ADDS     r1,r1,#5
        0x0000172c:    220a        ."      MOVS     r2,#0xa
        0x0000172e:    fbb1f1f2    ....    UDIV     r1,r1,r2
        0x00001732:    1e49        I.      SUBS     r1,r1,#1
        0x00001734:    29ff        .)      CMP      r1,#0xff
        0x00001736:    d905        ..      BLS      0x1744 ; SPI_Open + 372
        0x00001738:    6861        ah      LDR      r1,[r4,#4]
        0x0000173a:    f04101ff    A...    ORR      r1,r1,#0xff
        0x0000173e:    6061        a`      STR      r1,[r4,#4]
        0x00001740:    0a00        ..      LSRS     r0,r0,#8
        0x00001742:    e7de        ..      B        0x1702 ; SPI_Open + 306
        0x00001744:    6862        bh      LDR      r2,[r4,#4]
        0x00001746:    f02202ff    "...    BIC      r2,r2,#0xff
        0x0000174a:    430a        .C      ORRS     r2,r2,r1
        0x0000174c:    6062        b`      STR      r2,[r4,#4]
        0x0000174e:    1c49        I.      ADDS     r1,r1,#1
        0x00001750:    fbb0f0f1    ....    UDIV     r0,r0,r1
        0x00001754:    e7d5        ..      B        0x1702 ; SPI_Open + 306
        0x00001756:    f5007004    ...p    ADD      r0,r0,#0x210
        0x0000175a:    4554        TE      CMP      r4,r10
        0x0000175c:    6881        .h      LDR      r1,[r0,#8]
        0x0000175e:    d10a        ..      BNE      0x1776 ; SPI_Open + 422
        0x00001760:    f0210130    !.0.    BIC      r1,r1,#0x30
        0x00001764:    f0410120    A. .    ORR      r1,r1,#0x20
        0x00001768:    6081        .`      STR      r1,[r0,#8]
        0x0000176a:    6800        .h      LDR      r0,[r0,#0]
        0x0000176c:    0600        ..      LSLS     r0,r0,#24
        0x0000176e:    2800        .(      CMP      r0,#0
        0x00001770:    da09        ..      BGE      0x1786 ; SPI_Open + 438
        0x00001772:    0868        h.      LSRS     r0,r5,#1
        0x00001774:    e7c5        ..      B        0x1702 ; SPI_Open + 306
        0x00001776:    f02101c0    !...    BIC      r1,r1,#0xc0
        0x0000177a:    f0410180    A...    ORR      r1,r1,#0x80
        0x0000177e:    6081        .`      STR      r1,[r0,#8]
        0x00001780:    6800        .h      LDR      r0,[r0,#0]
        0x00001782:    0640        @.      LSLS     r0,r0,#25
        0x00001784:    e7f3        ..      B        0x176e ; SPI_Open + 414
        0x00001786:    4628        (F      MOV      r0,r5
        0x00001788:    e7bb        ..      B        0x1702 ; SPI_Open + 306
    $d
        0x0000178a:    0000        ..      DCW    0
        0x0000178c:    40061000    ...@    DCD    1074139136
        0x00001790:    40062000    . .@    DCD    1074143232
        0x00001794:    40060000    ...@    DCD    1074135040
        0x00001798:    00b71b00    ....    DCD    12000000
        0x0000179c:    01518000    ..Q.    DCD    22118400
    $t
    i.SYS_Init
    SYS_Init
        0x000017a0:    b510        ..      PUSH     {r4,lr}
        0x000017a2:    2004        .       MOVS     r0,#4
        0x000017a4:    f7feff06    ....    BL       CLK_EnableXtalRC ; 0x5b4
        0x000017a8:    2010        .       MOVS     r0,#0x10
        0x000017aa:    f7fff847    ..G.    BL       CLK_WaitClockReady ; 0x83c
        0x000017ae:    2100        .!      MOVS     r1,#0
        0x000017b0:    2007        .       MOVS     r0,#7
        0x000017b2:    f7feffdb    ....    BL       CLK_SetHCLK ; 0x76c
        0x000017b6:    2001        .       MOVS     r0,#1
        0x000017b8:    f7fefefc    ....    BL       CLK_EnableXtalRC ; 0x5b4
        0x000017bc:    2001        .       MOVS     r0,#1
        0x000017be:    f7fff83d    ..=.    BL       CLK_WaitClockReady ; 0x83c
        0x000017c2:    480b        .H      LDR      r0,[pc,#44] ; [0x17f0] = 0x44aa200
        0x000017c4:    f7feff8a    ....    BL       CLK_SetCoreClock ; 0x6dc
        0x000017c8:    4c0a        .L      LDR      r4,[pc,#40] ; [0x17f4] = 0x57803d10
        0x000017ca:    4620         F      MOV      r0,r4
        0x000017cc:    f7fefe10    ....    BL       CLK_EnableModuleClock ; 0x3f0
        0x000017d0:    2200        ."      MOVS     r2,#0
        0x000017d2:    4611        .F      MOV      r1,r2
        0x000017d4:    4620         F      MOV      r0,r4
        0x000017d6:    f7fefff7    ....    BL       CLK_SetModuleClock ; 0x7c8
        0x000017da:    06a0        ..      LSLS     r0,r4,#26
        0x000017dc:    6c81        .l      LDR      r1,[r0,#0x48]
        0x000017de:    4a06        .J      LDR      r2,[pc,#24] ; [0x17f8] = 0xf0ffff0f
        0x000017e0:    4011        .@      ANDS     r1,r1,r2
        0x000017e2:    6481        .d      STR      r1,[r0,#0x48]
        0x000017e4:    6c81        .l      LDR      r1,[r0,#0x48]
        0x000017e6:    4a05        .J      LDR      r2,[pc,#20] ; [0x17fc] = 0x3000030
        0x000017e8:    4311        .C      ORRS     r1,r1,r2
        0x000017ea:    6481        .d      STR      r1,[r0,#0x48]
        0x000017ec:    bd10        ..      POP      {r4,pc}
    $d
        0x000017ee:    0000        ..      DCW    0
        0x000017f0:    044aa200    ..J.    DCD    72000000
        0x000017f4:    57803d10    .=.W    DCD    1468022032
        0x000017f8:    f0ffff0f    ....    DCD    4043308815
        0x000017fc:    03000030    0...    DCD    50331696
    $t
    i.SYS_ResetModule
    SYS_ResetModule
        0x00001800:    f04f4180    O..A    MOV      r1,#0x40000000
        0x00001804:    eb016110    ...a    ADD      r1,r1,r0,LSR #24
        0x00001808:    688b        .h      LDR      r3,[r1,#8]
        0x0000180a:    2201        ."      MOVS     r2,#1
        0x0000180c:    4082        .@      LSLS     r2,r2,r0
        0x0000180e:    4313        .C      ORRS     r3,r3,r2
        0x00001810:    608b        .`      STR      r3,[r1,#8]
        0x00001812:    6888        .h      LDR      r0,[r1,#8]
        0x00001814:    4390        .C      BICS     r0,r0,r2
        0x00001816:    6088        .`      STR      r0,[r1,#8]
        0x00001818:    4770        pG      BX       lr
        0x0000181a:    0000        ..      MOVS     r0,r0
    i.SendChar_ToUART
    SendChar_ToUART
        0x0000181c:    4906        .I      LDR      r1,[pc,#24] ; [0x1838] = 0x40070000
        0x0000181e:    698a        .i      LDR      r2,[r1,#0x18]
        0x00001820:    0212        ..      LSLS     r2,r2,#8
        0x00001822:    d4fc        ..      BMI      0x181e ; SendChar_ToUART + 2
        0x00001824:    6008        .`      STR      r0,[r1,#0]
        0x00001826:    280a        .(      CMP      r0,#0xa
        0x00001828:    d104        ..      BNE      0x1834 ; SendChar_ToUART + 24
        0x0000182a:    6988        .i      LDR      r0,[r1,#0x18]
        0x0000182c:    0200        ..      LSLS     r0,r0,#8
        0x0000182e:    d4fc        ..      BMI      0x182a ; SendChar_ToUART + 14
        0x00001830:    200d        .       MOVS     r0,#0xd
        0x00001832:    6008        .`      STR      r0,[r1,#0]
        0x00001834:    4770        pG      BX       lr
    $d
        0x00001836:    0000        ..      DCW    0
        0x00001838:    40070000    ...@    DCD    1074200576
    $t
    i.SendNEC
    SendNEC
        0x0000183c:    e92d41f0    -..A    PUSH     {r4-r8,lr}
        0x00001840:    4606        .F      MOV      r6,r0
        0x00001842:    2010        .       MOVS     r0,#0x10
        0x00001844:    f7fffc82    ....    BL       Mark ; 0x114c
        0x00001848:    2008        .       MOVS     r0,#8
        0x0000184a:    f7fffeb5    ....    BL       SPACE ; 0x15b8
        0x0000184e:    2500        .%      MOVS     r5,#0
        0x00001850:    2701        .'      MOVS     r7,#1
        0x00001852:    2400        .$      MOVS     r4,#0
        0x00001854:    2001        .       MOVS     r0,#1
        0x00001856:    f7fffc79    ..y.    BL       Mark ; 0x114c
        0x0000185a:    5d70        p]      LDRB     r0,[r6,r5]
        0x0000185c:    fa07f104    ....    LSL      r1,r7,r4
        0x00001860:    4208        .B      TST      r0,r1
        0x00001862:    d001        ..      BEQ      0x1868 ; SendNEC + 44
        0x00001864:    2003        .       MOVS     r0,#3
        0x00001866:    e000        ..      B        0x186a ; SendNEC + 46
        0x00001868:    2001        .       MOVS     r0,#1
        0x0000186a:    f7fffea5    ....    BL       SPACE ; 0x15b8
        0x0000186e:    1c64        d.      ADDS     r4,r4,#1
        0x00001870:    b2e4        ..      UXTB     r4,r4
        0x00001872:    2c08        .,      CMP      r4,#8
        0x00001874:    d3ee        ..      BCC      0x1854 ; SendNEC + 24
        0x00001876:    1c6d        m.      ADDS     r5,r5,#1
        0x00001878:    b2ed        ..      UXTB     r5,r5
        0x0000187a:    2d04        .-      CMP      r5,#4
        0x0000187c:    d3e9        ..      BCC      0x1852 ; SendNEC + 22
        0x0000187e:    e8bd41f0    ...A    POP      {r4-r8,lr}
        0x00001882:    2001        .       MOVS     r0,#1
        0x00001884:    f7ffbc62    ..b.    B.W      Mark ; 0x114c
    i.Show_Seven_Segment
    Show_Seven_Segment
        0x00001888:    e92d4ff0    -..O    PUSH     {r4-r11,lr}
        0x0000188c:    4c3c        <L      LDR      r4,[pc,#240] ; [0x1980] = 0x4000486c
        0x0000188e:    f04f0a01    O...    MOV      r10,#1
        0x00001892:    f8c4a000    ....    STR      r10,[r4,#0]
        0x00001896:    1d25        %.      ADDS     r5,r4,#4
        0x00001898:    f8c5a000    ....    STR      r10,[r5,#0]
        0x0000189c:    1d2b        +.      ADDS     r3,r5,#4
        0x0000189e:    f8c3a000    ....    STR      r10,[r3,#0]
        0x000018a2:    f1030804    ....    ADD      r8,r3,#4
        0x000018a6:    f8c8a000    ....    STR      r10,[r8,#0]
        0x000018aa:    f1080904    ....    ADD      r9,r8,#4
        0x000018ae:    f8c9a000    ....    STR      r10,[r9,#0]
        0x000018b2:    4e33        3N      LDR      r6,[pc,#204] ; [0x1980] = 0x4000486c
        0x000018b4:    3e18        .>      SUBS     r6,r6,#0x18
        0x000018b6:    f8c6a000    ....    STR      r10,[r6,#0]
        0x000018ba:    4f31        1O      LDR      r7,[pc,#196] ; [0x1980] = 0x4000486c
        0x000018bc:    3780        .7      ADDS     r7,r7,#0x80
        0x000018be:    f8c7a000    ....    STR      r10,[r7,#0]
        0x000018c2:    f8dfc0bc    ....    LDR      r12,[pc,#188] ; [0x1980] = 0x4000486c
        0x000018c6:    f10c0cdc    ....    ADD      r12,r12,#0xdc
        0x000018ca:    f8cca000    ....    STR      r10,[r12,#0]
        0x000018ce:    f8dfe0b0    ....    LDR      lr,[pc,#176] ; [0x1980] = 0x4000486c
        0x000018d2:    2200        ."      MOVS     r2,#0
        0x000018d4:    f10e0e74    ..t.    ADD      lr,lr,#0x74
        0x000018d8:    f8ce2000    ...     STR      r2,[lr,#0]
        0x000018dc:    f8dfb0a0    ....    LDR      r11,[pc,#160] ; [0x1980] = 0x4000486c
        0x000018e0:    f10b0b34    ..4.    ADD      r11,r11,#0x34
        0x000018e4:    f8cb2000    ...     STR      r2,[r11,#0]
        0x000018e8:    280a        .(      CMP      r0,#0xa
        0x000018ea:    d23d        =.      BCS      0x1968 ; Show_Seven_Segment + 224
        0x000018ec:    e8dff000    ....    TBB      [pc,r0]
    $d
        0x000018f0:    150f0d05    ....    DCD    353307909
        0x000018f4:    2a23201b    . #*    DCD    706945051
        0x000018f8:    372f        /7      DCW    14127
    $t
        0x000018fa:    6022        "`      STR      r2,[r4,#0]
        0x000018fc:    602a        *`      STR      r2,[r5,#0]
        0x000018fe:    601a        .`      STR      r2,[r3,#0]
        0x00001900:    f8c82000    ...     STR      r2,[r8,#0]
        0x00001904:    f8c92000    ...     STR      r2,[r9,#0]
        0x00001908:    e01f        ..      B        0x194a ; Show_Seven_Segment + 194
        0x0000190a:    602a        *`      STR      r2,[r5,#0]
        0x0000190c:    e00e        ..      B        0x192c ; Show_Seven_Segment + 164
        0x0000190e:    6022        "`      STR      r2,[r4,#0]
        0x00001910:    602a        *`      STR      r2,[r5,#0]
        0x00001912:    603a        :`      STR      r2,[r7,#0]
        0x00001914:    f8c92000    ...     STR      r2,[r9,#0]
        0x00001918:    e002        ..      B        0x1920 ; Show_Seven_Segment + 152
        0x0000191a:    6022        "`      STR      r2,[r4,#0]
        0x0000191c:    602a        *`      STR      r2,[r5,#0]
        0x0000191e:    e00e        ..      B        0x193e ; Show_Seven_Segment + 182
        0x00001920:    f8c82000    ...     STR      r2,[r8,#0]
        0x00001924:    e020         .      B        0x1968 ; Show_Seven_Segment + 224
        0x00001926:    6032        2`      STR      r2,[r6,#0]
        0x00001928:    602a        *`      STR      r2,[r5,#0]
        0x0000192a:    603a        :`      STR      r2,[r7,#0]
        0x0000192c:    601a        .`      STR      r2,[r3,#0]
        0x0000192e:    e01b        ..      B        0x1968 ; Show_Seven_Segment + 224
        0x00001930:    6022        "`      STR      r2,[r4,#0]
        0x00001932:    6032        2`      STR      r2,[r6,#0]
        0x00001934:    e003        ..      B        0x193e ; Show_Seven_Segment + 182
        0x00001936:    6022        "`      STR      r2,[r4,#0]
        0x00001938:    6032        2`      STR      r2,[r6,#0]
        0x0000193a:    f8c92000    ...     STR      r2,[r9,#0]
        0x0000193e:    603a        :`      STR      r2,[r7,#0]
        0x00001940:    601a        .`      STR      r2,[r3,#0]
        0x00001942:    e7ed        ..      B        0x1920 ; Show_Seven_Segment + 152
        0x00001944:    6022        "`      STR      r2,[r4,#0]
        0x00001946:    602a        *`      STR      r2,[r5,#0]
        0x00001948:    601a        .`      STR      r2,[r3,#0]
        0x0000194a:    6032        2`      STR      r2,[r6,#0]
        0x0000194c:    e00c        ..      B        0x1968 ; Show_Seven_Segment + 224
        0x0000194e:    6022        "`      STR      r2,[r4,#0]
        0x00001950:    602a        *`      STR      r2,[r5,#0]
        0x00001952:    601a        .`      STR      r2,[r3,#0]
        0x00001954:    f8c82000    ...     STR      r2,[r8,#0]
        0x00001958:    f8c92000    ...     STR      r2,[r9,#0]
        0x0000195c:    e002        ..      B        0x1964 ; Show_Seven_Segment + 220
        0x0000195e:    6022        "`      STR      r2,[r4,#0]
        0x00001960:    602a        *`      STR      r2,[r5,#0]
        0x00001962:    601a        .`      STR      r2,[r3,#0]
        0x00001964:    6032        2`      STR      r2,[r6,#0]
        0x00001966:    603a        :`      STR      r2,[r7,#0]
        0x00001968:    2901        .)      CMP      r1,#1
        0x0000196a:    d006        ..      BEQ      0x197a ; Show_Seven_Segment + 242
        0x0000196c:    2902        .)      CMP      r1,#2
        0x0000196e:    d102        ..      BNE      0x1976 ; Show_Seven_Segment + 238
        0x00001970:    4650        PF      MOV      r0,r10
        0x00001972:    4659        YF      MOV      r1,r11
        0x00001974:    6008        .`      STR      r0,[r1,#0]
        0x00001976:    e8bd8ff0    ....    POP      {r4-r11,pc}
        0x0000197a:    4650        PF      MOV      r0,r10
        0x0000197c:    4671        qF      MOV      r1,lr
        0x0000197e:    e7f9        ..      B        0x1974 ; Show_Seven_Segment + 236
    $d
        0x00001980:    4000486c    lH.@    DCD    1073760364
    $t
    i.SpiFlash_ReadMidDid
    SpiFlash_ReadMidDid
        0x00001984:    481a        .H      LDR      r0,[pc,#104] ; [0x19f0] = 0x40062000
        0x00001986:    6881        .h      LDR      r1,[r0,#8]
        0x00001988:    f021010c    !...    BIC      r1,r1,#0xc
        0x0000198c:    f0410101    A...    ORR      r1,r1,#1
        0x00001990:    6081        .`      STR      r1,[r0,#8]
        0x00001992:    6801        .h      LDR      r1,[r0,#0]
        0x00001994:    f42151f8    !..Q    BIC      r1,r1,#0x1f00
        0x00001998:    f4416100    A..a    ORR      r1,r1,#0x800
        0x0000199c:    6001        .`      STR      r1,[r0,#0]
        0x0000199e:    2190        .!      MOVS     r1,#0x90
        0x000019a0:    6201        .b      STR      r1,[r0,#0x20]
        0x000019a2:    6941        Ai      LDR      r1,[r0,#0x14]
        0x000019a4:    07c9        ..      LSLS     r1,r1,#31
        0x000019a6:    d1fc        ..      BNE      0x19a2 ; SpiFlash_ReadMidDid + 30
        0x000019a8:    6801        .h      LDR      r1,[r0,#0]
        0x000019aa:    f42151f8    !..Q    BIC      r1,r1,#0x1f00
        0x000019ae:    f44151c0    A..Q    ORR      r1,r1,#0x1800
        0x000019b2:    6001        .`      STR      r1,[r0,#0]
        0x000019b4:    2100        .!      MOVS     r1,#0
        0x000019b6:    6201        .b      STR      r1,[r0,#0x20]
        0x000019b8:    6941        Ai      LDR      r1,[r0,#0x14]
        0x000019ba:    07c9        ..      LSLS     r1,r1,#31
        0x000019bc:    d1fc        ..      BNE      0x19b8 ; SpiFlash_ReadMidDid + 52
        0x000019be:    6801        .h      LDR      r1,[r0,#0]
        0x000019c0:    f42151f8    !..Q    BIC      r1,r1,#0x1f00
        0x000019c4:    f4415180    A..Q    ORR      r1,r1,#0x1000
        0x000019c8:    6001        .`      STR      r1,[r0,#0]
        0x000019ca:    6901        .i      LDR      r1,[r0,#0x10]
        0x000019cc:    f4417180    A..q    ORR      r1,r1,#0x100
        0x000019d0:    6101        .a      STR      r1,[r0,#0x10]
        0x000019d2:    2100        .!      MOVS     r1,#0
        0x000019d4:    6201        .b      STR      r1,[r0,#0x20]
        0x000019d6:    6941        Ai      LDR      r1,[r0,#0x14]
        0x000019d8:    07c9        ..      LSLS     r1,r1,#31
        0x000019da:    d1fc        ..      BNE      0x19d6 ; SpiFlash_ReadMidDid + 82
        0x000019dc:    6881        .h      LDR      r1,[r0,#8]
        0x000019de:    f0210108    !...    BIC      r1,r1,#8
        0x000019e2:    f0410105    A...    ORR      r1,r1,#5
        0x000019e6:    6081        .`      STR      r1,[r0,#8]
        0x000019e8:    6b00        .k      LDR      r0,[r0,#0x30]
        0x000019ea:    b280        ..      UXTH     r0,r0
        0x000019ec:    4770        pG      BX       lr
    $d
        0x000019ee:    0000        ..      DCW    0
        0x000019f0:    40062000    . .@    DCD    1074143232
    $t
    i.SystemCoreClockUpdate
    SystemCoreClockUpdate
        0x000019f4:    b518        ..      PUSH     {r3,r4,lr}
        0x000019f6:    a01f        ..      ADR      r0,{pc}+0x7e ; 0x1a74
        0x000019f8:    f04f4380    O..C    MOV      r3,#0x40000000
        0x000019fc:    6800        .h      LDR      r0,[r0,#0]
        0x000019fe:    9000        ..      STR      r0,[sp,#0]
        0x00001a00:    f8d30240    ..@.    LDR      r0,[r3,#0x240]
        0x00001a04:    f4102fa0    .../    TST      r0,#0x50000
        0x00001a08:    d001        ..      BEQ      0x1a0e ; SystemCoreClockUpdate + 26
        0x00001a0a:    2100        .!      MOVS     r1,#0
        0x00001a0c:    e017        ..      B        0x1a3e ; SystemCoreClockUpdate + 74
        0x00001a0e:    0301        ..      LSLS     r1,r0,#12
        0x00001a10:    d501        ..      BPL      0x1a16 ; SystemCoreClockUpdate + 34
        0x00001a12:    4919        .I      LDR      r1,[pc,#100] ; [0x1a78] = 0x1518000
        0x00001a14:    e000        ..      B        0x1a18 ; SystemCoreClockUpdate + 36
        0x00001a16:    4919        .I      LDR      r1,[pc,#100] ; [0x1a7c] = 0xb71b00
        0x00001a18:    0382        ..      LSLS     r2,r0,#14
        0x00001a1a:    d410        ..      BMI      0x1a3e ; SystemCoreClockUpdate + 74
        0x00001a1c:    f3c03481    ...4    UBFX     r4,r0,#14,#2
        0x00001a20:    f3c00208    ....    UBFX     r2,r0,#0,#9
        0x00001a24:    1c92        ..      ADDS     r2,r2,#2
        0x00001a26:    f3c02044    ..D     UBFX     r0,r0,#9,#5
        0x00001a2a:    f81dc004    ....    LDRB     r12,[sp,r4]
        0x00001a2e:    1c80        ..      ADDS     r0,r0,#2
        0x00001a30:    0889        ..      LSRS     r1,r1,#2
        0x00001a32:    4351        QC      MULS     r1,r2,r1
        0x00001a34:    fb10f00c    ....    SMULBB   r0,r0,r12
        0x00001a38:    fbb1f0f0    ....    UDIV     r0,r1,r0
        0x00001a3c:    0081        ..      LSLS     r1,r0,#2
        0x00001a3e:    4a10        .J      LDR      r2,[pc,#64] ; [0x1a80] = 0x20000000
        0x00001a40:    6091        .`      STR      r1,[r2,#8]
        0x00001a42:    f8d30210    ....    LDR      r0,[r3,#0x210]
        0x00001a46:    f0000007    ....    AND      r0,r0,#7
        0x00001a4a:    2802        .(      CMP      r0,#2
        0x00001a4c:    d003        ..      BEQ      0x1a56 ; SystemCoreClockUpdate + 98
        0x00001a4e:    f102010c    ....    ADD      r1,r2,#0xc
        0x00001a52:    f8511020    Q. .    LDR      r1,[r1,r0,LSL #2]
        0x00001a56:    f8d30220    .. .    LDR      r0,[r3,#0x220]
        0x00001a5a:    f000000f    ....    AND      r0,r0,#0xf
        0x00001a5e:    1c40        @.      ADDS     r0,r0,#1
        0x00001a60:    fbb1f0f0    ....    UDIV     r0,r1,r0
        0x00001a64:    4907        .I      LDR      r1,[pc,#28] ; [0x1a84] = 0x7a120
        0x00001a66:    6010        .`      STR      r0,[r2,#0]
        0x00001a68:    4408        .D      ADD      r0,r0,r1
        0x00001a6a:    0049        I.      LSLS     r1,r1,#1
        0x00001a6c:    fbb0f0f1    ....    UDIV     r0,r0,r1
        0x00001a70:    6050        P`      STR      r0,[r2,#4]
        0x00001a72:    bd18        ..      POP      {r3,r4,pc}
    $d
        0x00001a74:    04020201    ....    DCD    67240449
        0x00001a78:    01518000    ..Q.    DCD    22118400
        0x00001a7c:    00b71b00    ....    DCD    12000000
        0x00001a80:    20000000    ...     DCD    536870912
        0x00001a84:    0007a120     ...    DCD    500000
    $t
    i.SystemInit
    SystemInit
        0x00001a88:    b510        ..      PUSH     {r4,lr}
        0x00001a8a:    2159        Y!      MOVS     r1,#0x59
        0x00001a8c:    2216        ."      MOVS     r2,#0x16
        0x00001a8e:    2388        .#      MOVS     r3,#0x88
        0x00001a90:    0788        ..      LSLS     r0,r1,#30
        0x00001a92:    f8c01100    ....    STR      r1,[r0,#0x100]
        0x00001a96:    f8c02100    ...!    STR      r2,[r0,#0x100]
        0x00001a9a:    f8c03100    ...1    STR      r3,[r0,#0x100]
        0x00001a9e:    f8d04100    ...A    LDR      r4,[r0,#0x100]
        0x00001aa2:    2c00        .,      CMP      r4,#0
        0x00001aa4:    d0f5        ..      BEQ      0x1a92 ; SystemInit + 10
        0x00001aa6:    6801        .h      LDR      r1,[r0,#0]
        0x00001aa8:    f6401245    @.E.    MOV      r2,#0x945
        0x00001aac:    ebb23f11    ...?    CMP      r2,r1,LSR #12
        0x00001ab0:    d103        ..      BNE      0x1aba ; SystemInit + 50
        0x00001ab2:    6941        Ai      LDR      r1,[r0,#0x14]
        0x00001ab4:    f0410180    A...    ORR      r1,r1,#0x80
        0x00001ab8:    6141        Aa      STR      r1,[r0,#0x14]
        0x00001aba:    f8d01200    ....    LDR      r1,[r0,#0x200]
        0x00001abe:    f4215180    !..Q    BIC      r1,r1,#0x1000
        0x00001ac2:    f8c01200    ....    STR      r1,[r0,#0x200]
        0x00001ac6:    2100        .!      MOVS     r1,#0
        0x00001ac8:    f8c01100    ....    STR      r1,[r0,#0x100]
        0x00001acc:    4802        .H      LDR      r0,[pc,#8] ; [0x1ad8] = 0xe000ed88
        0x00001ace:    6801        .h      LDR      r1,[r0,#0]
        0x00001ad0:    f4410170    A.p.    ORR      r1,r1,#0xf00000
        0x00001ad4:    6001        .`      STR      r1,[r0,#0]
        0x00001ad6:    bd10        ..      POP      {r4,pc}
    $d
        0x00001ad8:    e000ed88    ....    DCD    3758157192
    $t
    i.UART0_Init
    UART0_Init
        0x00001adc:    b510        ..      PUSH     {r4,lr}
        0x00001ade:    4805        .H      LDR      r0,[pc,#20] ; [0x1af4] = 0x4000010
        0x00001ae0:    f7fffe8e    ....    BL       SYS_ResetModule ; 0x1800
        0x00001ae4:    e8bd4010    ...@    POP      {r4,lr}
        0x00001ae8:    f44f31e1    O..1    MOV      r1,#0x1c200
        0x00001aec:    4802        .H      LDR      r0,[pc,#8] ; [0x1af8] = 0x40070000
        0x00001aee:    f000b805    ....    B.W      UART_Open ; 0x1afc
    $d
        0x00001af2:    0000        ..      DCW    0
        0x00001af4:    04000010    ....    DCD    67108880
        0x00001af8:    40070000    ...@    DCD    1074200576
    $t
    i.UART_Open
    UART_Open
        0x00001afc:    e92d41ff    -..A    PUSH     {r0-r8,lr}
        0x00001b00:    4604        .F      MOV      r4,r0
        0x00001b02:    481f        .H      LDR      r0,[pc,#124] ; [0x1b80] = 0x2320
        0x00001b04:    460d        .F      MOV      r5,r1
        0x00001b06:    e890000e    ....    LDM      r0,{r1-r3}
        0x00001b0a:    68c0        .h      LDR      r0,[r0,#0xc]
        0x00001b0c:    e9cd1200    ....    STRD     r1,r2,[sp,#0]
        0x00001b10:    e9cd3002    ...0    STRD     r3,r0,[sp,#8]
        0x00001b14:    481b        .H      LDR      r0,[pc,#108] ; [0x1b84] = 0x40000214
        0x00001b16:    6801        .h      LDR      r1,[r0,#0]
        0x00001b18:    68c0        .h      LDR      r0,[r0,#0xc]
        0x00001b1a:    f3c16601    ...f    UBFX     r6,r1,#24,#2
        0x00001b1e:    f3c02703    ...'    UBFX     r7,r0,#8,#4
        0x00001b22:    f04f0000    O...    MOV      r0,#0
        0x00001b26:    6320         c      STR      r0,[r4,#0x30]
        0x00001b28:    f04f0003    O...    MOV      r0,#3
        0x00001b2c:    60e0        .`      STR      r0,[r4,#0xc]
        0x00001b2e:    68a0        .h      LDR      r0,[r4,#8]
        0x00001b30:    4915        .I      LDR      r1,[pc,#84] ; [0x1b88] = 0xfff0ff0f
        0x00001b32:    ea000001    ....    AND      r0,r0,r1
        0x00001b36:    60a0        .`      STR      r0,[r4,#8]
        0x00001b38:    46e8        .F      MOV      r8,sp
        0x00001b3a:    2e01        ..      CMP      r6,#1
        0x00001b3c:    d102        ..      BNE      0x1b44 ; UART_Open + 72
        0x00001b3e:    f7fefd75    ..u.    BL       CLK_GetPLLClockFreq ; 0x62c
        0x00001b42:    9001        ..      STR      r0,[sp,#4]
        0x00001b44:    2d00        .-      CMP      r5,#0
        0x00001b46:    d018        ..      BEQ      0x1b7a ; UART_Open + 126
        0x00001b48:    f8580026    X.&.    LDR      r0,[r8,r6,LSL #2]
        0x00001b4c:    1c7f        ..      ADDS     r7,r7,#1
        0x00001b4e:    fbb0f1f7    ....    UDIV     r1,r0,r7
        0x00001b52:    eb010055    ..U.    ADD      r0,r1,r5,LSR #1
        0x00001b56:    fbb0f0f5    ....    UDIV     r0,r0,r5
        0x00001b5a:    1e80        ..      SUBS     r0,r0,#2
        0x00001b5c:    f5b03f80    ...?    CMP      r0,#0x10000
        0x00001b60:    d308        ..      BCC      0x1b74 ; UART_Open + 120
        0x00001b62:    eb0100c5    ....    ADD      r0,r1,r5,LSL #3
        0x00001b66:    fbb0f0f5    ....    UDIV     r0,r0,r5
        0x00001b6a:    f06f0101    o...    MVN      r1,#1
        0x00001b6e:    eb011010    ....    ADD      r0,r1,r0,LSR #4
        0x00001b72:    e001        ..      B        0x1b78 ; UART_Open + 124
        0x00001b74:    f0405040    @.@P    ORR      r0,r0,#0x30000000
        0x00001b78:    6260        `b      STR      r0,[r4,#0x24]
        0x00001b7a:    e8bd81ff    ....    POP      {r0-r8,pc}
    $d
        0x00001b7e:    0000        ..      DCW    0
        0x00001b80:    00002320     #..    DCD    8992
        0x00001b84:    40000214    ...@    DCD    1073742356
        0x00001b88:    fff0ff0f    ....    DCD    4293984015
    $t
    i.Write_Buzzer
    Write_Buzzer
        0x00001b8c:    b570        p.      PUSH     {r4-r6,lr}
        0x00001b8e:    4613        .F      MOV      r3,r2
        0x00001b90:    4d0b        .M      LDR      r5,[pc,#44] ; [0x1bc0] = 0x40059000
        0x00001b92:    4604        .F      MOV      r4,r0
        0x00001b94:    460a        .F      MOV      r2,r1
        0x00001b96:    2105        .!      MOVS     r1,#5
        0x00001b98:    4628        (F      MOV      r0,r5
        0x00001b9a:    f7fffc45    ..E.    BL       PWM_ConfigOutputChannel ; 0x1428
        0x00001b9e:    2120         !      MOVS     r1,#0x20
        0x00001ba0:    4628        (F      MOV      r0,r5
        0x00001ba2:    f7fffd05    ....    BL       PWM_Start ; 0x15b0
        0x00001ba6:    2c01        .,      CMP      r4,#1
        0x00001ba8:    f04f0120    O. .    MOV      r1,#0x20
        0x00001bac:    4628        (F      MOV      r0,r5
        0x00001bae:    d003        ..      BEQ      0x1bb8 ; Write_Buzzer + 44
        0x00001bb0:    e8bd4070    ..p@    POP      {r4-r6,lr}
        0x00001bb4:    f7ffbcba    ....    B.W      PWM_DisableOutput ; 0x152c
        0x00001bb8:    e8bd4070    ..p@    POP      {r4-r6,lr}
        0x00001bbc:    f7ffbccd    ....    B.W      PWM_EnableOutput ; 0x155a
    $d
        0x00001bc0:    40059000    ...@    DCD    1074106368
    $t
    i.Write_LED_Bar
    Write_LED_Bar
        0x00001bc4:    b530        0.      PUSH     {r4,r5,lr}
        0x00001bc6:    b087        ..      SUB      sp,sp,#0x1c
        0x00001bc8:    4604        .F      MOV      r4,r0
        0x00001bca:    221c        ."      MOVS     r2,#0x1c
        0x00001bcc:    4909        .I      LDR      r1,[pc,#36] ; [0x1bf4] = 0x2350
        0x00001bce:    4668        hF      MOV      r0,sp
        0x00001bd0:    f7fefafc    ....    BL       __aeabi_memcpy ; 0x1cc
        0x00001bd4:    2000        .       MOVS     r0,#0
        0x00001bd6:    4601        .F      MOV      r1,r0
        0x00001bd8:    466a        jF      MOV      r2,sp
        0x00001bda:    2301        .#      MOVS     r3,#1
        0x00001bdc:    f8525020    R. P    LDR      r5,[r2,r0,LSL #2]
        0x00001be0:    4284        .B      CMP      r4,r0
        0x00001be2:    d901        ..      BLS      0x1be8 ; Write_LED_Bar + 36
        0x00001be4:    6029        )`      STR      r1,[r5,#0]
        0x00001be6:    e000        ..      B        0x1bea ; Write_LED_Bar + 38
        0x00001be8:    602b        +`      STR      r3,[r5,#0]
        0x00001bea:    1c40        @.      ADDS     r0,r0,#1
        0x00001bec:    2807        .(      CMP      r0,#7
        0x00001bee:    d3f5        ..      BCC      0x1bdc ; Write_LED_Bar + 24
        0x00001bf0:    b007        ..      ADD      sp,sp,#0x1c
        0x00001bf2:    bd30        0.      POP      {r4,r5,pc}
    $d
        0x00001bf4:    00002350    P#..    DCD    9040
    $t
    i.__0printf$8
    __0printf$8
    __1printf$8
    __2printf
        0x00001bf8:    b40f        ..      PUSH     {r0-r3}
        0x00001bfa:    4b05        .K      LDR      r3,[pc,#20] ; [0x1c10] = 0x20af
        0x00001bfc:    b510        ..      PUSH     {r4,lr}
        0x00001bfe:    a903        ..      ADD      r1,sp,#0xc
        0x00001c00:    4a04        .J      LDR      r2,[pc,#16] ; [0x1c14] = 0x20000030
        0x00001c02:    9802        ..      LDR      r0,[sp,#8]
        0x00001c04:    f000f818    ....    BL       _printf_core ; 0x1c38
        0x00001c08:    bc10        ..      POP      {r4}
        0x00001c0a:    f85dfb14    ]...    LDR      pc,[sp],#0x14
    $d
        0x00001c0e:    0000        ..      DCW    0
        0x00001c10:    000020af    . ..    DCD    8367
        0x00001c14:    20000030    0..     DCD    536870960
    $t
    i.__scatterload_copy
    __scatterload_copy
        0x00001c18:    e002        ..      B        0x1c20 ; __scatterload_copy + 8
        0x00001c1a:    c808        ..      LDM      r0!,{r3}
        0x00001c1c:    1f12        ..      SUBS     r2,r2,#4
        0x00001c1e:    c108        ..      STM      r1!,{r3}
        0x00001c20:    2a00        .*      CMP      r2,#0
        0x00001c22:    d1fa        ..      BNE      0x1c1a ; __scatterload_copy + 2
        0x00001c24:    4770        pG      BX       lr
    i.__scatterload_null
    __scatterload_null
        0x00001c26:    4770        pG      BX       lr
    i.__scatterload_zeroinit
    __scatterload_zeroinit
        0x00001c28:    2000        .       MOVS     r0,#0
        0x00001c2a:    e001        ..      B        0x1c30 ; __scatterload_zeroinit + 8
        0x00001c2c:    c101        ..      STM      r1!,{r0}
        0x00001c2e:    1f12        ..      SUBS     r2,r2,#4
        0x00001c30:    2a00        .*      CMP      r2,#0
        0x00001c32:    d1fb        ..      BNE      0x1c2c ; __scatterload_zeroinit + 4
        0x00001c34:    4770        pG      BX       lr
        0x00001c36:    0000        ..      MOVS     r0,r0
    i._printf_core
    _printf_core
        0x00001c38:    e92d4fff    -..O    PUSH     {r0-r11,lr}
        0x00001c3c:    b08d        ..      SUB      sp,sp,#0x34
        0x00001c3e:    4605        .F      MOV      r5,r0
        0x00001c40:    460f        .F      MOV      r7,r1
        0x00001c42:    2600        .&      MOVS     r6,#0
        0x00001c44:    e1e9        ..      B        0x201a ; _printf_core + 994
        0x00001c46:    2825        %(      CMP      r0,#0x25
        0x00001c48:    d179        y.      BNE      0x1d3e ; _printf_core + 262
        0x00001c4a:    2400        .$      MOVS     r4,#0
        0x00001c4c:    1c6d        m.      ADDS     r5,r5,#1
        0x00001c4e:    4af7        .J      LDR      r2,[pc,#988] ; [0x202c] = 0x12809
        0x00001c50:    46a2        .F      MOV      r10,r4
        0x00001c52:    46a1        .F      MOV      r9,r4
        0x00001c54:    2101        .!      MOVS     r1,#1
        0x00001c56:    782b        +x      LDRB     r3,[r5,#0]
        0x00001c58:    3b20         ;      SUBS     r3,r3,#0x20
        0x00001c5a:    fa01f003    ....    LSL      r0,r1,r3
        0x00001c5e:    4210        .B      TST      r0,r2
        0x00001c60:    d002        ..      BEQ      0x1c68 ; _printf_core + 48
        0x00001c62:    4304        .C      ORRS     r4,r4,r0
        0x00001c64:    1c6d        m.      ADDS     r5,r5,#1
        0x00001c66:    e7f6        ..      B        0x1c56 ; _printf_core + 30
        0x00001c68:    7828        (x      LDRB     r0,[r5,#0]
        0x00001c6a:    282a        *(      CMP      r0,#0x2a
        0x00001c6c:    d010        ..      BEQ      0x1c90 ; _printf_core + 88
        0x00001c6e:    f06f022f    o./.    MVN      r2,#0x2f
        0x00001c72:    7828        (x      LDRB     r0,[r5,#0]
        0x00001c74:    f1a00130    ..0.    SUB      r1,r0,#0x30
        0x00001c78:    2909        .)      CMP      r1,#9
        0x00001c7a:    d815        ..      BHI      0x1ca8 ; _printf_core + 112
        0x00001c7c:    eb0a018a    ....    ADD      r1,r10,r10,LSL #2
        0x00001c80:    eb020141    ..A.    ADD      r1,r2,r1,LSL #1
        0x00001c84:    f0440402    D...    ORR      r4,r4,#2
        0x00001c88:    eb000a01    ....    ADD      r10,r0,r1
        0x00001c8c:    1c6d        m.      ADDS     r5,r5,#1
        0x00001c8e:    e7f0        ..      B        0x1c72 ; _printf_core + 58
        0x00001c90:    f857ab04    W...    LDR      r10,[r7],#4
        0x00001c94:    f1ba0f00    ....    CMP      r10,#0
        0x00001c98:    da03        ..      BGE      0x1ca2 ; _printf_core + 106
        0x00001c9a:    f4445400    D..T    ORR      r4,r4,#0x2000
        0x00001c9e:    f1ca0a00    ....    RSB      r10,r10,#0
        0x00001ca2:    f0440402    D...    ORR      r4,r4,#2
        0x00001ca6:    1c6d        m.      ADDS     r5,r5,#1
        0x00001ca8:    7828        (x      LDRB     r0,[r5,#0]
        0x00001caa:    282e        .(      CMP      r0,#0x2e
        0x00001cac:    d117        ..      BNE      0x1cde ; _printf_core + 166
        0x00001cae:    f8150f01    ....    LDRB     r0,[r5,#1]!
        0x00001cb2:    f0440404    D...    ORR      r4,r4,#4
        0x00001cb6:    282a        *(      CMP      r0,#0x2a
        0x00001cb8:    d00e        ..      BEQ      0x1cd8 ; _printf_core + 160
        0x00001cba:    f06f022f    o./.    MVN      r2,#0x2f
        0x00001cbe:    7828        (x      LDRB     r0,[r5,#0]
        0x00001cc0:    f1a00130    ..0.    SUB      r1,r0,#0x30
        0x00001cc4:    2909        .)      CMP      r1,#9
        0x00001cc6:    d80a        ..      BHI      0x1cde ; _printf_core + 166
        0x00001cc8:    eb090189    ....    ADD      r1,r9,r9,LSL #2
        0x00001ccc:    eb020141    ..A.    ADD      r1,r2,r1,LSL #1
        0x00001cd0:    eb000901    ....    ADD      r9,r0,r1
        0x00001cd4:    1c6d        m.      ADDS     r5,r5,#1
        0x00001cd6:    e7f2        ..      B        0x1cbe ; _printf_core + 134
        0x00001cd8:    f8579b04    W...    LDR      r9,[r7],#4
        0x00001cdc:    1c6d        m.      ADDS     r5,r5,#1
        0x00001cde:    7828        (x      LDRB     r0,[r5,#0]
        0x00001ce0:    286c        l(      CMP      r0,#0x6c
        0x00001ce2:    d00f        ..      BEQ      0x1d04 ; _printf_core + 204
        0x00001ce4:    dc06        ..      BGT      0x1cf4 ; _printf_core + 188
        0x00001ce6:    284c        L(      CMP      r0,#0x4c
        0x00001ce8:    d017        ..      BEQ      0x1d1a ; _printf_core + 226
        0x00001cea:    2868        h(      CMP      r0,#0x68
        0x00001cec:    d00d        ..      BEQ      0x1d0a ; _printf_core + 210
        0x00001cee:    286a        j(      CMP      r0,#0x6a
        0x00001cf0:    d114        ..      BNE      0x1d1c ; _printf_core + 228
        0x00001cf2:    e004        ..      B        0x1cfe ; _printf_core + 198
        0x00001cf4:    2874        t(      CMP      r0,#0x74
        0x00001cf6:    d010        ..      BEQ      0x1d1a ; _printf_core + 226
        0x00001cf8:    287a        z(      CMP      r0,#0x7a
        0x00001cfa:    d10f        ..      BNE      0x1d1c ; _printf_core + 228
        0x00001cfc:    e00d        ..      B        0x1d1a ; _printf_core + 226
        0x00001cfe:    f4441400    D...    ORR      r4,r4,#0x200000
        0x00001d02:    e00a        ..      B        0x1d1a ; _printf_core + 226
        0x00001d04:    f4441480    D...    ORR      r4,r4,#0x100000
        0x00001d08:    e001        ..      B        0x1d0e ; _printf_core + 214
        0x00001d0a:    f4441440    D.@.    ORR      r4,r4,#0x300000
        0x00001d0e:    7869        ix      LDRB     r1,[r5,#1]
        0x00001d10:    4281        .B      CMP      r1,r0
        0x00001d12:    d102        ..      BNE      0x1d1a ; _printf_core + 226
        0x00001d14:    1c6d        m.      ADDS     r5,r5,#1
        0x00001d16:    f5041480    ....    ADD      r4,r4,#0x100000
        0x00001d1a:    1c6d        m.      ADDS     r5,r5,#1
        0x00001d1c:    f895c000    ....    LDRB     r12,[r5,#0]
        0x00001d20:    f1bc0f6e    ..n.    CMP      r12,#0x6e
        0x00001d24:    d02a        *.      BEQ      0x1d7c ; _printf_core + 324
        0x00001d26:    dc12        ..      BGT      0x1d4e ; _printf_core + 278
        0x00001d28:    f1bc0f63    ..c.    CMP      r12,#0x63
        0x00001d2c:    d03c        <.      BEQ      0x1da8 ; _printf_core + 368
        0x00001d2e:    dc07        ..      BGT      0x1d40 ; _printf_core + 264
        0x00001d30:    f1bc0f00    ....    CMP      r12,#0
        0x00001d34:    d076        v.      BEQ      0x1e24 ; _printf_core + 492
        0x00001d36:    f1bc0f58    ..X.    CMP      r12,#0x58
        0x00001d3a:    d119        ..      BNE      0x1d70 ; _printf_core + 312
        0x00001d3c:    e0a7        ..      B        0x1e8e ; _printf_core + 598
        0x00001d3e:    e018        ..      B        0x1d72 ; _printf_core + 314
        0x00001d40:    f1bc0f64    ..d.    CMP      r12,#0x64
        0x00001d44:    d06f        o.      BEQ      0x1e26 ; _printf_core + 494
        0x00001d46:    f1bc0f69    ..i.    CMP      r12,#0x69
        0x00001d4a:    d111        ..      BNE      0x1d70 ; _printf_core + 312
        0x00001d4c:    e06b        k.      B        0x1e26 ; _printf_core + 494
        0x00001d4e:    f1bc0f73    ..s.    CMP      r12,#0x73
        0x00001d52:    d032        2.      BEQ      0x1dba ; _printf_core + 386
        0x00001d54:    dc06        ..      BGT      0x1d64 ; _printf_core + 300
        0x00001d56:    f1bc0f6f    ..o.    CMP      r12,#0x6f
        0x00001d5a:    d071        q.      BEQ      0x1e40 ; _printf_core + 520
        0x00001d5c:    f1bc0f70    ..p.    CMP      r12,#0x70
        0x00001d60:    d106        ..      BNE      0x1d70 ; _printf_core + 312
        0x00001d62:    e096        ..      B        0x1e92 ; _printf_core + 602
        0x00001d64:    f1bc0f75    ..u.    CMP      r12,#0x75
        0x00001d68:    d06b        k.      BEQ      0x1e42 ; _printf_core + 522
        0x00001d6a:    f1bc0f78    ..x.    CMP      r12,#0x78
        0x00001d6e:    d069        i.      BEQ      0x1e44 ; _printf_core + 524
        0x00001d70:    4660        `F      MOV      r0,r12
        0x00001d72:    e9dd120f    ....    LDRD     r1,r2,[sp,#0x3c]
        0x00001d76:    4790        .G      BLX      r2
        0x00001d78:    1c76        v.      ADDS     r6,r6,#1
        0x00001d7a:    e14d        M.      B        0x2018 ; _printf_core + 992
        0x00001d7c:    f3c45002    ...P    UBFX     r0,r4,#20,#3
        0x00001d80:    2802        .(      CMP      r0,#2
        0x00001d82:    d006        ..      BEQ      0x1d92 ; _printf_core + 346
        0x00001d84:    2803        .(      CMP      r0,#3
        0x00001d86:    d00a        ..      BEQ      0x1d9e ; _printf_core + 358
        0x00001d88:    2804        .(      CMP      r0,#4
        0x00001d8a:    cf01        ..      LDM      r7!,{r0}
        0x00001d8c:    d00a        ..      BEQ      0x1da4 ; _printf_core + 364
        0x00001d8e:    6006        .`      STR      r6,[r0,#0]
        0x00001d90:    e142        B.      B        0x2018 ; _printf_core + 992
        0x00001d92:    cf01        ..      LDM      r7!,{r0}
        0x00001d94:    ea4f71e6    O..q    ASR      r1,r6,#31
        0x00001d98:    e9c06100    ...a    STRD     r6,r1,[r0,#0]
        0x00001d9c:    e13c        <.      B        0x2018 ; _printf_core + 992
        0x00001d9e:    cf01        ..      LDM      r7!,{r0}
        0x00001da0:    8006        ..      STRH     r6,[r0,#0]
        0x00001da2:    e139        9.      B        0x2018 ; _printf_core + 992
        0x00001da4:    7006        .p      STRB     r6,[r0,#0]
        0x00001da6:    e137        7.      B        0x2018 ; _printf_core + 992
        0x00001da8:    cf01        ..      LDM      r7!,{r0}
        0x00001daa:    f88d0000    ....    STRB     r0,[sp,#0]
        0x00001dae:    2000        .       MOVS     r0,#0
        0x00001db0:    f88d0001    ....    STRB     r0,[sp,#1]
        0x00001db4:    46eb        .F      MOV      r11,sp
        0x00001db6:    2001        .       MOVS     r0,#1
        0x00001db8:    e003        ..      B        0x1dc2 ; _printf_core + 394
        0x00001dba:    f857bb04    W...    LDR      r11,[r7],#4
        0x00001dbe:    f04f30ff    O..0    MOV      r0,#0xffffffff
        0x00001dc2:    0761        a.      LSLS     r1,r4,#29
        0x00001dc4:    f04f0100    O...    MOV      r1,#0
        0x00001dc8:    d402        ..      BMI      0x1dd0 ; _printf_core + 408
        0x00001dca:    e00d        ..      B        0x1de8 ; _printf_core + 432
        0x00001dcc:    f1080101    ....    ADD      r1,r8,#1
        0x00001dd0:    4688        .F      MOV      r8,r1
        0x00001dd2:    4549        IE      CMP      r1,r9
        0x00001dd4:    da0f        ..      BGE      0x1df6 ; _printf_core + 446
        0x00001dd6:    4580        .E      CMP      r8,r0
        0x00001dd8:    dbf8        ..      BLT      0x1dcc ; _printf_core + 404
        0x00001dda:    f81b1008    ....    LDRB     r1,[r11,r8]
        0x00001dde:    2900        .)      CMP      r1,#0
        0x00001de0:    d1f4        ..      BNE      0x1dcc ; _printf_core + 404
        0x00001de2:    e008        ..      B        0x1df6 ; _printf_core + 446
        0x00001de4:    f1080101    ....    ADD      r1,r8,#1
        0x00001de8:    4688        .F      MOV      r8,r1
        0x00001dea:    4281        .B      CMP      r1,r0
        0x00001dec:    dbfa        ..      BLT      0x1de4 ; _printf_core + 428
        0x00001dee:    f81b1008    ....    LDRB     r1,[r11,r8]
        0x00001df2:    2900        .)      CMP      r1,#0
        0x00001df4:    d1f6        ..      BNE      0x1de4 ; _printf_core + 428
        0x00001df6:    e9dd230f    ...#    LDRD     r2,r3,[sp,#0x3c]
        0x00001dfa:    ebaa0008    ....    SUB      r0,r10,r8
        0x00001dfe:    4681        .F      MOV      r9,r0
        0x00001e00:    4621        !F      MOV      r1,r4
        0x00001e02:    f000f93c    ..<.    BL       _printf_pre_padding ; 0x207e
        0x00001e06:    4430        0D      ADD      r0,r0,r6
        0x00001e08:    eb000608    ....    ADD      r6,r0,r8
        0x00001e0c:    e004        ..      B        0x1e18 ; _printf_core + 480
        0x00001e0e:    e9dd120f    ....    LDRD     r1,r2,[sp,#0x3c]
        0x00001e12:    f81b0b01    ....    LDRB     r0,[r11],#1
        0x00001e16:    4790        .G      BLX      r2
        0x00001e18:    f1b80801    ....    SUBS     r8,r8,#1
        0x00001e1c:    d2f7        ..      BCS      0x1e0e ; _printf_core + 470
        0x00001e1e:    4621        !F      MOV      r1,r4
        0x00001e20:    4648        HF      MOV      r0,r9
        0x00001e22:    e0f4        ..      B        0x200e ; _printf_core + 982
        0x00001e24:    e0fd        ..      B        0x2022 ; _printf_core + 1002
        0x00001e26:    210a        .!      MOVS     r1,#0xa
        0x00001e28:    f3c45202    ...R    UBFX     r2,r4,#20,#3
        0x00001e2c:    f04f0b00    O...    MOV      r11,#0
        0x00001e30:    9108        ..      STR      r1,[sp,#0x20]
        0x00001e32:    2a02        .*      CMP      r2,#2
        0x00001e34:    d007        ..      BEQ      0x1e46 ; _printf_core + 526
        0x00001e36:    cf01        ..      LDM      r7!,{r0}
        0x00001e38:    17c1        ..      ASRS     r1,r0,#31
        0x00001e3a:    2a03        .*      CMP      r2,#3
        0x00001e3c:    d009        ..      BEQ      0x1e52 ; _printf_core + 538
        0x00001e3e:    e00a        ..      B        0x1e56 ; _printf_core + 542
        0x00001e40:    e030        0.      B        0x1ea4 ; _printf_core + 620
        0x00001e42:    e022        ".      B        0x1e8a ; _printf_core + 594
        0x00001e44:    e023        #.      B        0x1e8e ; _printf_core + 598
        0x00001e46:    1dff        ..      ADDS     r7,r7,#7
        0x00001e48:    f0270707    '...    BIC      r7,r7,#7
        0x00001e4c:    e8f70102    ....    LDRD     r0,r1,[r7],#8
        0x00001e50:    e005        ..      B        0x1e5e ; _printf_core + 550
        0x00001e52:    b200        ..      SXTH     r0,r0
        0x00001e54:    17c1        ..      ASRS     r1,r0,#31
        0x00001e56:    2a04        .*      CMP      r2,#4
        0x00001e58:    d101        ..      BNE      0x1e5e ; _printf_core + 550
        0x00001e5a:    b240        @.      SXTB     r0,r0
        0x00001e5c:    17c1        ..      ASRS     r1,r0,#31
        0x00001e5e:    2900        .)      CMP      r1,#0
        0x00001e60:    da06        ..      BGE      0x1e70 ; _printf_core + 568
        0x00001e62:    2300        .#      MOVS     r3,#0
        0x00001e64:    ebd00003    ....    RSBS     r0,r0,r3
        0x00001e68:    eb630101    c...    SBC      r1,r3,r1
        0x00001e6c:    222d        -"      MOVS     r2,#0x2d
        0x00001e6e:    e002        ..      B        0x1e76 ; _printf_core + 574
        0x00001e70:    0522        ".      LSLS     r2,r4,#20
        0x00001e72:    d504        ..      BPL      0x1e7e ; _printf_core + 582
        0x00001e74:    222b        +"      MOVS     r2,#0x2b
        0x00001e76:    f88d2024    ..$     STRB     r2,[sp,#0x24]
        0x00001e7a:    2201        ."      MOVS     r2,#1
        0x00001e7c:    e003        ..      B        0x1e86 ; _printf_core + 590
        0x00001e7e:    07e2        ..      LSLS     r2,r4,#31
        0x00001e80:    d001        ..      BEQ      0x1e86 ; _printf_core + 590
        0x00001e82:    2220         "      MOVS     r2,#0x20
        0x00001e84:    e7f7        ..      B        0x1e76 ; _printf_core + 574
        0x00001e86:    4690        .F      MOV      r8,r2
        0x00001e88:    e04e        N.      B        0x1f28 ; _printf_core + 752
        0x00001e8a:    210a        .!      MOVS     r1,#0xa
        0x00001e8c:    e00b        ..      B        0x1ea6 ; _printf_core + 622
        0x00001e8e:    2110        .!      MOVS     r1,#0x10
        0x00001e90:    e009        ..      B        0x1ea6 ; _printf_core + 622
        0x00001e92:    2110        .!      MOVS     r1,#0x10
        0x00001e94:    f04f0b00    O...    MOV      r11,#0
        0x00001e98:    f0440404    D...    ORR      r4,r4,#4
        0x00001e9c:    f04f0908    O...    MOV      r9,#8
        0x00001ea0:    9108        ..      STR      r1,[sp,#0x20]
        0x00001ea2:    e003        ..      B        0x1eac ; _printf_core + 628
        0x00001ea4:    2108        .!      MOVS     r1,#8
        0x00001ea6:    f04f0b00    O...    MOV      r11,#0
        0x00001eaa:    9108        ..      STR      r1,[sp,#0x20]
        0x00001eac:    f3c45202    ...R    UBFX     r2,r4,#20,#3
        0x00001eb0:    2a02        .*      CMP      r2,#2
        0x00001eb2:    d004        ..      BEQ      0x1ebe ; _printf_core + 646
        0x00001eb4:    cf01        ..      LDM      r7!,{r0}
        0x00001eb6:    2100        .!      MOVS     r1,#0
        0x00001eb8:    2a03        .*      CMP      r2,#3
        0x00001eba:    d006        ..      BEQ      0x1eca ; _printf_core + 658
        0x00001ebc:    e007        ..      B        0x1ece ; _printf_core + 662
        0x00001ebe:    1dff        ..      ADDS     r7,r7,#7
        0x00001ec0:    f0270707    '...    BIC      r7,r7,#7
        0x00001ec4:    e8f70102    ....    LDRD     r0,r1,[r7],#8
        0x00001ec8:    e005        ..      B        0x1ed6 ; _printf_core + 670
        0x00001eca:    b280        ..      UXTH     r0,r0
        0x00001ecc:    2100        .!      MOVS     r1,#0
        0x00001ece:    2a04        .*      CMP      r2,#4
        0x00001ed0:    d101        ..      BNE      0x1ed6 ; _printf_core + 670
        0x00001ed2:    b2c0        ..      UXTB     r0,r0
        0x00001ed4:    2100        .!      MOVS     r1,#0
        0x00001ed6:    f04f0800    O...    MOV      r8,#0
        0x00001eda:    0722        ".      LSLS     r2,r4,#28
        0x00001edc:    d524        $.      BPL      0x1f28 ; _printf_core + 752
        0x00001ede:    f1bc0f70    ..p.    CMP      r12,#0x70
        0x00001ee2:    d029        ).      BEQ      0x1f38 ; _printf_core + 768
        0x00001ee4:    9b08        ..      LDR      r3,[sp,#0x20]
        0x00001ee6:    f0830310    ....    EOR      r3,r3,#0x10
        0x00001eea:    ea53030b    S...    ORRS     r3,r3,r11
        0x00001eee:    d109        ..      BNE      0x1f04 ; _printf_core + 716
        0x00001ef0:    ea500201    P...    ORRS     r2,r0,r1
        0x00001ef4:    d006        ..      BEQ      0x1f04 ; _printf_core + 716
        0x00001ef6:    2230        0"      MOVS     r2,#0x30
        0x00001ef8:    f88d2024    ..$     STRB     r2,[sp,#0x24]
        0x00001efc:    f88dc025    ..%.    STRB     r12,[sp,#0x25]
        0x00001f00:    2202        ."      MOVS     r2,#2
        0x00001f02:    4690        .F      MOV      r8,r2
        0x00001f04:    9b08        ..      LDR      r3,[sp,#0x20]
        0x00001f06:    f0830308    ....    EOR      r3,r3,#8
        0x00001f0a:    ea53030b    S...    ORRS     r3,r3,r11
        0x00001f0e:    d10b        ..      BNE      0x1f28 ; _printf_core + 752
        0x00001f10:    ea500201    P...    ORRS     r2,r0,r1
        0x00001f14:    d101        ..      BNE      0x1f1a ; _printf_core + 738
        0x00001f16:    0762        b.      LSLS     r2,r4,#29
        0x00001f18:    d506        ..      BPL      0x1f28 ; _printf_core + 752
        0x00001f1a:    2230        0"      MOVS     r2,#0x30
        0x00001f1c:    f88d2024    ..$     STRB     r2,[sp,#0x24]
        0x00001f20:    f04f0801    O...    MOV      r8,#1
        0x00001f24:    f1a90901    ....    SUB      r9,r9,#1
        0x00001f28:    f1bc0f58    ..X.    CMP      r12,#0x58
        0x00001f2c:    d009        ..      BEQ      0x1f42 ; _printf_core + 778
        0x00001f2e:    a240        @.      ADR      r2,{pc}+0x102 ; 0x2030
        0x00001f30:    920b        ..      STR      r2,[sp,#0x2c]
        0x00001f32:    aa08        ..      ADD      r2,sp,#0x20
        0x00001f34:    920a        ..      STR      r2,[sp,#0x28]
        0x00001f36:    e011        ..      B        0x1f5c ; _printf_core + 804
        0x00001f38:    2240        @"      MOVS     r2,#0x40
        0x00001f3a:    f88d2024    ..$     STRB     r2,[sp,#0x24]
        0x00001f3e:    2201        ."      MOVS     r2,#1
        0x00001f40:    e7df        ..      B        0x1f02 ; _printf_core + 714
        0x00001f42:    a240        @.      ADR      r2,{pc}+0x102 ; 0x2044
        0x00001f44:    e7f4        ..      B        0x1f30 ; _printf_core + 760
        0x00001f46:    465b        [F      MOV      r3,r11
        0x00001f48:    9a08        ..      LDR      r2,[sp,#0x20]
        0x00001f4a:    f7fef987    ....    BL       __aeabi_uldivmod ; 0x25c
        0x00001f4e:    9b0b        ..      LDR      r3,[sp,#0x2c]
        0x00001f50:    5c9b        .\      LDRB     r3,[r3,r2]
        0x00001f52:    9a0a        ..      LDR      r2,[sp,#0x28]
        0x00001f54:    f1a20201    ....    SUB      r2,r2,#1
        0x00001f58:    920a        ..      STR      r2,[sp,#0x28]
        0x00001f5a:    7013        .p      STRB     r3,[r2,#0]
        0x00001f5c:    ea500201    P...    ORRS     r2,r0,r1
        0x00001f60:    d1f1        ..      BNE      0x1f46 ; _printf_core + 782
        0x00001f62:    980a        ..      LDR      r0,[sp,#0x28]
        0x00001f64:    ebad0000    ....    SUB      r0,sp,r0
        0x00001f68:    f1000b20    .. .    ADD      r11,r0,#0x20
        0x00001f6c:    0760        `.      LSLS     r0,r4,#29
        0x00001f6e:    d502        ..      BPL      0x1f76 ; _printf_core + 830
        0x00001f70:    f4243480    $..4    BIC      r4,r4,#0x10000
        0x00001f74:    e001        ..      B        0x1f7a ; _printf_core + 834
        0x00001f76:    f04f0901    O...    MOV      r9,#1
        0x00001f7a:    45d9        .E      CMP      r9,r11
        0x00001f7c:    dd02        ..      BLE      0x1f84 ; _printf_core + 844
        0x00001f7e:    eba9000b    ....    SUB      r0,r9,r11
        0x00001f82:    e000        ..      B        0x1f86 ; _printf_core + 846
        0x00001f84:    2000        .       MOVS     r0,#0
        0x00001f86:    eb00010b    ....    ADD      r1,r0,r11
        0x00001f8a:    4441        AD      ADD      r1,r1,r8
        0x00001f8c:    9008        ..      STR      r0,[sp,#0x20]
        0x00001f8e:    ebaa0001    ....    SUB      r0,r10,r1
        0x00001f92:    900b        ..      STR      r0,[sp,#0x2c]
        0x00001f94:    03e0        ..      LSLS     r0,r4,#15
        0x00001f96:    d406        ..      BMI      0x1fa6 ; _printf_core + 878
        0x00001f98:    e9dd230f    ...#    LDRD     r2,r3,[sp,#0x3c]
        0x00001f9c:    4621        !F      MOV      r1,r4
        0x00001f9e:    980b        ..      LDR      r0,[sp,#0x2c]
        0x00001fa0:    f000f86d    ..m.    BL       _printf_pre_padding ; 0x207e
        0x00001fa4:    4406        .D      ADD      r6,r6,r0
        0x00001fa6:    f04f0900    O...    MOV      r9,#0
        0x00001faa:    f10d0a24    ..$.    ADD      r10,sp,#0x24
        0x00001fae:    e007        ..      B        0x1fc0 ; _printf_core + 904
        0x00001fb0:    e9dd120f    ....    LDRD     r1,r2,[sp,#0x3c]
        0x00001fb4:    f81a0009    ....    LDRB     r0,[r10,r9]
        0x00001fb8:    4790        .G      BLX      r2
        0x00001fba:    1c76        v.      ADDS     r6,r6,#1
        0x00001fbc:    f1090901    ....    ADD      r9,r9,#1
        0x00001fc0:    45c1        .E      CMP      r9,r8
        0x00001fc2:    dbf5        ..      BLT      0x1fb0 ; _printf_core + 888
        0x00001fc4:    03e0        ..      LSLS     r0,r4,#15
        0x00001fc6:    d50c        ..      BPL      0x1fe2 ; _printf_core + 938
        0x00001fc8:    e9dd230f    ...#    LDRD     r2,r3,[sp,#0x3c]
        0x00001fcc:    4621        !F      MOV      r1,r4
        0x00001fce:    980b        ..      LDR      r0,[sp,#0x2c]
        0x00001fd0:    f000f855    ..U.    BL       _printf_pre_padding ; 0x207e
        0x00001fd4:    4406        .D      ADD      r6,r6,r0
        0x00001fd6:    e004        ..      B        0x1fe2 ; _printf_core + 938
        0x00001fd8:    e9dd120f    ....    LDRD     r1,r2,[sp,#0x3c]
        0x00001fdc:    2030        0       MOVS     r0,#0x30
        0x00001fde:    4790        .G      BLX      r2
        0x00001fe0:    1c76        v.      ADDS     r6,r6,#1
        0x00001fe2:    9908        ..      LDR      r1,[sp,#0x20]
        0x00001fe4:    1e48        H.      SUBS     r0,r1,#1
        0x00001fe6:    9008        ..      STR      r0,[sp,#0x20]
        0x00001fe8:    2900        .)      CMP      r1,#0
        0x00001fea:    dcf5        ..      BGT      0x1fd8 ; _printf_core + 928
        0x00001fec:    e008        ..      B        0x2000 ; _printf_core + 968
        0x00001fee:    980a        ..      LDR      r0,[sp,#0x28]
        0x00001ff0:    990a        ..      LDR      r1,[sp,#0x28]
        0x00001ff2:    7800        .x      LDRB     r0,[r0,#0]
        0x00001ff4:    1c49        I.      ADDS     r1,r1,#1
        0x00001ff6:    910a        ..      STR      r1,[sp,#0x28]
        0x00001ff8:    e9dd120f    ....    LDRD     r1,r2,[sp,#0x3c]
        0x00001ffc:    4790        .G      BLX      r2
        0x00001ffe:    1c76        v.      ADDS     r6,r6,#1
        0x00002000:    f1bb0100    ....    SUBS     r1,r11,#0
        0x00002004:    f1ab0b01    ....    SUB      r11,r11,#1
        0x00002008:    dcf1        ..      BGT      0x1fee ; _printf_core + 950
        0x0000200a:    980b        ..      LDR      r0,[sp,#0x2c]
        0x0000200c:    4621        !F      MOV      r1,r4
        0x0000200e:    e9dd230f    ...#    LDRD     r2,r3,[sp,#0x3c]
        0x00002012:    f000f821    ..!.    BL       _printf_post_padding ; 0x2058
        0x00002016:    4406        .D      ADD      r6,r6,r0
        0x00002018:    1c6d        m.      ADDS     r5,r5,#1
        0x0000201a:    7828        (x      LDRB     r0,[r5,#0]
        0x0000201c:    2800        .(      CMP      r0,#0
        0x0000201e:    f47fae12    ....    BNE      0x1c46 ; _printf_core + 14
        0x00002022:    b011        ..      ADD      sp,sp,#0x44
        0x00002024:    4630        0F      MOV      r0,r6
        0x00002026:    e8bd8ff0    ....    POP      {r4-r11,pc}
    $d
        0x0000202a:    0000        ..      DCW    0
        0x0000202c:    00012809    .(..    DCD    75785
        0x00002030:    33323130    0123    DCD    858927408
        0x00002034:    37363534    4567    DCD    926299444
        0x00002038:    62613938    89ab    DCD    1650538808
        0x0000203c:    66656463    cdef    DCD    1717920867
        0x00002040:    00000000    ....    DCD    0
        0x00002044:    33323130    0123    DCD    858927408
        0x00002048:    37363534    4567    DCD    926299444
        0x0000204c:    42413938    89AB    DCD    1111570744
        0x00002050:    46454443    CDEF    DCD    1178944579
        0x00002054:    00000000    ....    DCD    0
    $t
    i._printf_post_padding
    _printf_post_padding
        0x00002058:    e92d41f0    -..A    PUSH     {r4-r8,lr}
        0x0000205c:    4604        .F      MOV      r4,r0
        0x0000205e:    2500        .%      MOVS     r5,#0
        0x00002060:    4617        .F      MOV      r7,r2
        0x00002062:    461e        .F      MOV      r6,r3
        0x00002064:    0488        ..      LSLS     r0,r1,#18
        0x00002066:    d405        ..      BMI      0x2074 ; _printf_post_padding + 28
        0x00002068:    e006        ..      B        0x2078 ; _printf_post_padding + 32
        0x0000206a:    4639        9F      MOV      r1,r7
        0x0000206c:    2020                MOVS     r0,#0x20
        0x0000206e:    47b0        .G      BLX      r6
        0x00002070:    f1050501    ....    ADD      r5,r5,#1
        0x00002074:    1e64        d.      SUBS     r4,r4,#1
        0x00002076:    d5f8        ..      BPL      0x206a ; _printf_post_padding + 18
        0x00002078:    4628        (F      MOV      r0,r5
        0x0000207a:    e8bd81f0    ....    POP      {r4-r8,pc}
    i._printf_pre_padding
    _printf_pre_padding
        0x0000207e:    e92d41f0    -..A    PUSH     {r4-r8,lr}
        0x00002082:    4604        .F      MOV      r4,r0
        0x00002084:    2500        .%      MOVS     r5,#0
        0x00002086:    4690        .F      MOV      r8,r2
        0x00002088:    461e        .F      MOV      r6,r3
        0x0000208a:    03c8        ..      LSLS     r0,r1,#15
        0x0000208c:    d501        ..      BPL      0x2092 ; _printf_pre_padding + 20
        0x0000208e:    2730        0'      MOVS     r7,#0x30
        0x00002090:    e000        ..      B        0x2094 ; _printf_pre_padding + 22
        0x00002092:    2720         '      MOVS     r7,#0x20
        0x00002094:    0488        ..      LSLS     r0,r1,#18
        0x00002096:    d505        ..      BPL      0x20a4 ; _printf_pre_padding + 38
        0x00002098:    e006        ..      B        0x20a8 ; _printf_pre_padding + 42
        0x0000209a:    4641        AF      MOV      r1,r8
        0x0000209c:    4638        8F      MOV      r0,r7
        0x0000209e:    47b0        .G      BLX      r6
        0x000020a0:    f1050501    ....    ADD      r5,r5,#1
        0x000020a4:    1e64        d.      SUBS     r4,r4,#1
        0x000020a6:    d5f8        ..      BPL      0x209a ; _printf_pre_padding + 28
        0x000020a8:    4628        (F      MOV      r0,r5
        0x000020aa:    e8bd81f0    ....    POP      {r4-r8,pc}
    i.fputc
    fputc
        0x000020ae:    b500        ..      PUSH     {lr}
        0x000020b0:    4603        .F      MOV      r3,r0
        0x000020b2:    f7fffbb3    ....    BL       SendChar_ToUART ; 0x181c
        0x000020b6:    4618        .F      MOV      r0,r3
        0x000020b8:    bd00        ..      POP      {pc}
        0x000020ba:    0000        ..      MOVS     r0,r0
    i.main
    main
        0x000020bc:    b50e        ..      PUSH     {r1-r3,lr}
        0x000020be:    2059        Y       MOVS     r0,#0x59
        0x000020c0:    0784        ..      LSLS     r4,r0,#30
        0x000020c2:    2116        .!      MOVS     r1,#0x16
        0x000020c4:    2288        ."      MOVS     r2,#0x88
        0x000020c6:    f8c40100    ....    STR      r0,[r4,#0x100]
        0x000020ca:    f8c41100    ....    STR      r1,[r4,#0x100]
        0x000020ce:    f8c42100    ...!    STR      r2,[r4,#0x100]
        0x000020d2:    f8d43100    ...1    LDR      r3,[r4,#0x100]
        0x000020d6:    2b00        .+      CMP      r3,#0
        0x000020d8:    d0f5        ..      BEQ      0x20c6 ; main + 10
        0x000020da:    f7fffb61    ..a.    BL       SYS_Init ; 0x17a0
        0x000020de:    f04f0800    O...    MOV      r8,#0
        0x000020e2:    f8c48100    ....    STR      r8,[r4,#0x100]
        0x000020e6:    f7fffcf9    ....    BL       UART0_Init ; 0x1adc
        0x000020ea:    a050        P.      ADR      r0,{pc}+0x142 ; 0x222c
        0x000020ec:    f7fffd84    ....    BL       __0printf$8 ; 0x1bf8
        0x000020f0:    f7fff8d8    ....    BL       Open_Seven_Segment ; 0x12a4
        0x000020f4:    f7fefda2    ....    BL       Initial_Key_Input ; 0xc3c
        0x000020f8:    f7fefdea    ....    BL       Initial_PWM_LED ; 0xcd0
        0x000020fc:    f7fefdbc    ....    BL       Initial_LED ; 0xc78
        0x00002100:    f7fefc46    ..F.    BL       I2C_EEPROM_Init ; 0x990
        0x00002104:    f7fff838    ..8.    BL       Open_ADC_Knob ; 0x1178
        0x00002108:    f7fff880    ....    BL       Open_Buzzer ; 0x120c
        0x0000210c:    f7fff89c    ....    BL       Open_SPI_Flash ; 0x1248
        0x00002110:    f7fefe1c    ....    BL       IrDA_NEC_TxRx_Init ; 0xd4c
        0x00002114:    f7fffc36    ..6.    BL       SpiFlash_ReadMidDid ; 0x1984
        0x00002118:    4604        .F      MOV      r4,r0
        0x0000211a:    4601        .F      MOV      r1,r0
        0x0000211c:    a04a        J.      ADR      r0,{pc}+0x12c ; 0x2248
        0x0000211e:    f7fffd6b    ..k.    BL       __0printf$8 ; 0x1bf8
        0x00002122:    2501        .%      MOVS     r5,#1
        0x00002124:    f64e7014    N..p    MOV      r0,#0xef14
        0x00002128:    4284        .B      CMP      r4,r0
        0x0000212a:    d1fd        ..      BNE      0x2128 ; main + 108
        0x0000212c:    2155        U!      MOVS     r1,#0x55
        0x0000212e:    2010        .       MOVS     r0,#0x10
        0x00002130:    f7fefc88    ....    BL       I2C_EEPROM_Write ; 0xa44
        0x00002134:    2010        .       MOVS     r0,#0x10
        0x00002136:    f7fefc67    ..g.    BL       I2C_EEPROM_Read ; 0xa08
        0x0000213a:    4604        .F      MOV      r4,r0
        0x0000213c:    4601        .F      MOV      r1,r0
        0x0000213e:    a047        G.      ADR      r0,{pc}+0x11e ; 0x225c
        0x00002140:    f7fffd5a    ..Z.    BL       __0printf$8 ; 0x1bf8
        0x00002144:    f04f27e0    O..'    MOV      r7,#0xe000e000
        0x00002148:    2c55        U,      CMP      r4,#0x55
        0x0000214a:    d1fd        ..      BNE      0x2148 ; main + 140
        0x0000214c:    4847        GH      LDR      r0,[pc,#284] ; [0x226c] = 0x400048cc
        0x0000214e:    6800        .h      LDR      r0,[r0,#0]
        0x00002150:    2800        .(      CMP      r0,#0
        0x00002152:    d0fb        ..      BEQ      0x214c ; main + 144
        0x00002154:    f8dfa118    ....    LDR      r10,[pc,#280] ; [0x2270] = 0x20000004
        0x00002158:    2400        .$      MOVS     r4,#0
        0x0000215a:    b2ee        ..      UXTB     r6,r5
        0x0000215c:    f64039b8    @..9    MOV      r9,#0xbb8
        0x00002160:    f04f0b05    O...    MOV      r11,#5
        0x00002164:    4620         F      MOV      r0,r4
        0x00002166:    f7fffd2d    ..-.    BL       Write_LED_Bar ; 0x1bc4
        0x0000216a:    4631        1F      MOV      r1,r6
        0x0000216c:    b2e0        ..      UXTB     r0,r4
        0x0000216e:    f7fffb8b    ....    BL       Show_Seven_Segment ; 0x1888
        0x00002172:    f7fefbb5    ....    BL       Get_ADC_Knob ; 0x8e0
        0x00002176:    2164        d!      MOVS     r1,#0x64
        0x00002178:    4348        HC      MULS     r0,r1,r0
        0x0000217a:    0b02        ..      LSRS     r2,r0,#12
        0x0000217c:    e9cd2900    ...)    STRD     r2,r9,[sp,#0]
        0x00002180:    4649        IF      MOV      r1,r9
        0x00002182:    460b        .F      MOV      r3,r1
        0x00002184:    2007        .       MOVS     r0,#7
        0x00002186:    9202        ..      STR      r2,[sp,#8]
        0x00002188:    f7fff9ec    ....    BL       PWM_LED ; 0x1564
        0x0000218c:    f8da3000    ...0    LDR      r3,[r10,#0]
        0x00002190:    2000        .       MOVS     r0,#0
        0x00002192:    f44f717a    O.zq    MOV      r1,#0x3e8
        0x00002196:    46dc        .F      MOV      r12,r11
        0x00002198:    434b        KC      MULS     r3,r1,r3
        0x0000219a:    4642        BF      MOV      r2,r8
        0x0000219c:    617b        {a      STR      r3,[r7,#0x14]
        0x0000219e:    61ba        .a      STR      r2,[r7,#0x18]
        0x000021a0:    f8c7c010    ....    STR      r12,[r7,#0x10]
        0x000021a4:    6939        9i      LDR      r1,[r7,#0x10]
        0x000021a6:    03c9        ..      LSLS     r1,r1,#15
        0x000021a8:    d5fc        ..      BPL      0x21a4 ; main + 232
        0x000021aa:    613a        :a      STR      r2,[r7,#0x10]
        0x000021ac:    1c40        @.      ADDS     r0,r0,#1
        0x000021ae:    2864        d(      CMP      r0,#0x64
        0x000021b0:    dbf4        ..      BLT      0x219c ; main + 224
        0x000021b2:    1c64        d.      ADDS     r4,r4,#1
        0x000021b4:    2c0a        .,      CMP      r4,#0xa
        0x000021b6:    dbd5        ..      BLT      0x2164 ; main + 168
        0x000021b8:    1c6d        m.      ADDS     r5,r5,#1
        0x000021ba:    2d02        .-      CMP      r5,#2
        0x000021bc:    dd00        ..      BLE      0x21c0 ; main + 260
        0x000021be:    2501        .%      MOVS     r5,#1
        0x000021c0:    f7fefb9c    ....    BL       Get_Key_Input ; 0x8fc
        0x000021c4:    2801        .(      CMP      r0,#1
        0x000021c6:    d104        ..      BNE      0x21d2 ; main + 278
        0x000021c8:    2200        ."      MOVS     r2,#0
        0x000021ca:    4611        .F      MOV      r1,r2
        0x000021cc:    4610        .F      MOV      r0,r2
        0x000021ce:    f7fffcdd    ....    BL       Write_Buzzer ; 0x1b8c
        0x000021d2:    f7fefb93    ....    BL       Get_Key_Input ; 0x8fc
        0x000021d6:    2802        .(      CMP      r0,#2
        0x000021d8:    d105        ..      BNE      0x21e6 ; main + 298
        0x000021da:    2232        2"      MOVS     r2,#0x32
        0x000021dc:    f44f717a    O.zq    MOV      r1,#0x3e8
        0x000021e0:    2001        .       MOVS     r0,#1
        0x000021e2:    f7fffcd3    ....    BL       Write_Buzzer ; 0x1b8c
        0x000021e6:    f7fefb89    ....    BL       Get_Key_Input ; 0x8fc
        0x000021ea:    2804        .(      CMP      r0,#4
        0x000021ec:    d105        ..      BNE      0x21fa ; main + 318
        0x000021ee:    2232        2"      MOVS     r2,#0x32
        0x000021f0:    f2427110    B..q    MOV      r1,#0x2710
        0x000021f4:    2001        .       MOVS     r0,#1
        0x000021f6:    f7fffcc9    ....    BL       Write_Buzzer ; 0x1b8c
        0x000021fa:    f7fefb7f    ....    BL       Get_Key_Input ; 0x8fc
        0x000021fe:    2808        .(      CMP      r0,#8
        0x00002200:    d105        ..      BNE      0x220e ; main + 338
        0x00002202:    2232        2"      MOVS     r2,#0x32
        0x00002204:    f6446120    D. a    MOV      r1,#0x4e20
        0x00002208:    2001        .       MOVS     r0,#1
        0x0000220a:    f7fffcbf    ....    BL       Write_Buzzer ; 0x1b8c
        0x0000220e:    4819        .H      LDR      r0,[pc,#100] ; [0x2274] = 0x2000002c
        0x00002210:    7801        .x      LDRB     r1,[r0,#0]
        0x00002212:    1c49        I.      ADDS     r1,r1,#1
        0x00002214:    7001        .p      STRB     r1,[r0,#0]
        0x00002216:    7841        Ax      LDRB     r1,[r0,#1]
        0x00002218:    1c49        I.      ADDS     r1,r1,#1
        0x0000221a:    7041        Ap      STRB     r1,[r0,#1]
        0x0000221c:    7881        .x      LDRB     r1,[r0,#2]
        0x0000221e:    1c49        I.      ADDS     r1,r1,#1
        0x00002220:    7081        .p      STRB     r1,[r0,#2]
        0x00002222:    43c9        .C      MVNS     r1,r1
        0x00002224:    70c1        .p      STRB     r1,[r0,#3]
        0x00002226:    f7fffb09    ....    BL       SendNEC ; 0x183c
        0x0000222a:    e78f        ..      B        0x214c ; main + 144
    $d
        0x0000222c:    45754e0a    .NuE    DCD    1165315594
        0x00002230:    532d7564    du-S    DCD    1395488100
        0x00002234:    4d2d4b44    DK-M    DCD    1294814020
        0x00002238:    20313534    451     DCD    540095796
        0x0000223c:    72617453    Star    DCD    1918989395
        0x00002240:    694b2074    t Ki    DCD    1766531188
        0x00002244:    00000a74    t...    DCD    2676
        0x00002248:    2044494d    MID     DCD    541346125
        0x0000224c:    20646e61    and     DCD    543452769
        0x00002250:    20444944    DID     DCD    541346116
        0x00002254:    7830203d    = 0x    DCD    2016419901
        0x00002258:    000a7825    %x..    DCD    686117
        0x0000225c:    52504545    EEPR    DCD    1380992325
        0x00002260:    3d204d4f    OM =    DCD    1025527119
        0x00002264:    25783020     0x%    DCD    628633632
        0x00002268:    00000a78    x...    DCD    2680
        0x0000226c:    400048cc    .H.@    DCD    1073760460
        0x00002270:    20000004    ...     DCD    536870916
        0x00002274:    2000002c    ,..     DCD    536870956
    $t
    i.stackDump
    stackDump
        0x00002278:    b510        ..      PUSH     {r4,lr}
        0x0000227a:    4604        .F      MOV      r4,r0
        0x0000227c:    6801        .h      LDR      r1,[r0,#0]
        0x0000227e:    a010        ..      ADR      r0,{pc}+0x42 ; 0x22c0
        0x00002280:    f7fffcba    ....    BL       __0printf$8 ; 0x1bf8
        0x00002284:    a011        ..      ADR      r0,{pc}+0x48 ; 0x22cc
        0x00002286:    6861        ah      LDR      r1,[r4,#4]
        0x00002288:    f7fffcb6    ....    BL       __0printf$8 ; 0x1bf8
        0x0000228c:    a012        ..      ADR      r0,{pc}+0x4c ; 0x22d8
        0x0000228e:    68a1        .h      LDR      r1,[r4,#8]
        0x00002290:    f7fffcb2    ....    BL       __0printf$8 ; 0x1bf8
        0x00002294:    a013        ..      ADR      r0,{pc}+0x50 ; 0x22e4
        0x00002296:    68e1        .h      LDR      r1,[r4,#0xc]
        0x00002298:    f7fffcae    ....    BL       __0printf$8 ; 0x1bf8
        0x0000229c:    a014        ..      ADR      r0,{pc}+0x54 ; 0x22f0
        0x0000229e:    6921        !i      LDR      r1,[r4,#0x10]
        0x000022a0:    f7fffcaa    ....    BL       __0printf$8 ; 0x1bf8
        0x000022a4:    a015        ..      ADR      r0,{pc}+0x58 ; 0x22fc
        0x000022a6:    6961        ai      LDR      r1,[r4,#0x14]
        0x000022a8:    f7fffca6    ....    BL       __0printf$8 ; 0x1bf8
        0x000022ac:    a016        ..      ADR      r0,{pc}+0x5c ; 0x2308
        0x000022ae:    69a1        .i      LDR      r1,[r4,#0x18]
        0x000022b0:    f7fffca2    ....    BL       __0printf$8 ; 0x1bf8
        0x000022b4:    69e1        .i      LDR      r1,[r4,#0x1c]
        0x000022b6:    e8bd4010    ...@    POP      {r4,lr}
        0x000022ba:    a016        ..      ADR      r0,{pc}+0x5a ; 0x2314
        0x000022bc:    f7ffbc9c    ....    B.W      __0printf$8 ; 0x1bf8
    $d
        0x000022c0:    20203072    r0      DCD    538980466
        0x000022c4:    7830203d    = 0x    DCD    2016419901
        0x000022c8:    000a7825    %x..    DCD    686117
        0x000022cc:    20203172    r1      DCD    538980722
        0x000022d0:    7830203d    = 0x    DCD    2016419901
        0x000022d4:    000a7825    %x..    DCD    686117
        0x000022d8:    20203272    r2      DCD    538980978
        0x000022dc:    7830203d    = 0x    DCD    2016419901
        0x000022e0:    000a7825    %x..    DCD    686117
        0x000022e4:    20203372    r3      DCD    538981234
        0x000022e8:    7830203d    = 0x    DCD    2016419901
        0x000022ec:    000a7825    %x..    DCD    686117
        0x000022f0:    20323172    r12     DCD    540160370
        0x000022f4:    7830203d    = 0x    DCD    2016419901
        0x000022f8:    000a7825    %x..    DCD    686117
        0x000022fc:    2020726c    lr      DCD    538997356
        0x00002300:    7830203d    = 0x    DCD    2016419901
        0x00002304:    000a7825    %x..    DCD    686117
        0x00002308:    20206370    pc      DCD    538993520
        0x0000230c:    7830203d    = 0x    DCD    2016419901
        0x00002310:    000a7825    %x..    DCD    686117
        0x00002314:    20727370    psr     DCD    544371568
        0x00002318:    7830203d    = 0x    DCD    2016419901
        0x0000231c:    000a7825    %x..    DCD    686117
    $d.realdata
    .constdata
        0x00002320:    00b71b00    ....    DCD    12000000
        0x00002324:    00000000    ....    DCD    0
        0x00002328:    00008000    ....    DCD    32768
        0x0000232c:    01518000    ..Q.    DCD    22118400
        0x00002330:    00b71b00    ....    DCD    12000000
        0x00002334:    00000000    ....    DCD    0
        0x00002338:    00008000    ....    DCD    32768
        0x0000233c:    01518000    ..Q.    DCD    22118400
        0x00002340:    00b71b00    ....    DCD    12000000
        0x00002344:    00000000    ....    DCD    0
        0x00002348:    00008000    ....    DCD    32768
        0x0000234c:    01518000    ..Q.    DCD    22118400
    .constdata
        0x00002350:    40004848    HH.@    DCD    1073760328
        0x00002354:    4000484c    LH.@    DCD    1073760332
        0x00002358:    4000488c    .H.@    DCD    1073760396
        0x0000235c:    40004888    .H.@    DCD    1073760392
        0x00002360:    40004824    $H.@    DCD    1073760292
        0x00002364:    40004844    DH.@    DCD    1073760324
        0x00002368:    4000489c    .H.@    DCD    1073760412
    Region$$Table$$Base
        0x0000236c:    0000238c    .#..    DCD    9100
        0x00002370:    20000000    ...     DCD    536870912
        0x00002374:    0000004c    L...    DCD    76
        0x00002378:    00001c18    ....    DCD    7192
        0x0000237c:    000023d8    .#..    DCD    9176
        0x00002380:    2000004c    L..     DCD    536870988
        0x00002384:    00000404    ....    DCD    1028
        0x00002388:    00001c28    (...    DCD    7208
    Region$$Table$$Limit

** Section #2 'ER_RW' (SHT_PROGBITS) [SHF_ALLOC + SHF_WRITE]
    Size   : 76 bytes (alignment 4)
    Address: 0x20000000


** Section #3 'ER_ZI' (SHT_NOBITS) [SHF_ALLOC + SHF_WRITE]
    Size   : 1028 bytes (alignment 8)
    Address: 0x2000004c


** Section #4 '.debug_abbrev' (SHT_PROGBITS)
    Size   : 1476 bytes


** Section #5 '.debug_frame' (SHT_PROGBITS)
    Size   : 3136 bytes


** Section #6 '.debug_info' (SHT_PROGBITS)
    Size   : 48040 bytes


** Section #7 '.debug_line' (SHT_PROGBITS)
    Size   : 15864 bytes


** Section #8 '.debug_loc' (SHT_PROGBITS)
    Size   : 5872 bytes


** Section #9 '.debug_macinfo' (SHT_PROGBITS)
    Size   : 469176 bytes


** Section #10 '.debug_pubnames' (SHT_PROGBITS)
    Size   : 2937 bytes


** Section #11 '.symtab' (SHT_SYMTAB)
    Size   : 8800 bytes (alignment 4)
    String table #12 '.strtab'
    Last local symbol no. 324


** Section #12 '.strtab' (SHT_STRTAB)
    Size   : 7656 bytes


** Section #13 '.note' (SHT_NOTE)
    Size   : 28 bytes (alignment 4)


** Section #14 '.comment' (SHT_PROGBITS)
    Size   : 18872 bytes


** Section #15 '.shstrtab' (SHT_STRTAB)
    Size   : 156 bytes


